
/home/ziqiang/ics2021/am-kernels/benchmarks/dhrystone/build/dhrystone-riscv32-nemu.elf:     file format elf32-littleriscv


Disassembly of section .text:

80000000 <_start>:
80000000:	00000413          	li	s0,0
80000004:	0000d117          	auipc	sp,0xd
80000008:	ffc10113          	addi	sp,sp,-4 # 8000d000 <_end>
8000000c:	4d5000ef          	jal	ra,80000ce0 <_trm_init>

80000010 <Proc_6>:
80000010:	00200713          	li	a4,2
80000014:	04e50263          	beq	a0,a4,80000058 <Proc_6+0x48>
80000018:	00300793          	li	a5,3
8000001c:	00f5a023          	sw	a5,0(a1)
80000020:	00100793          	li	a5,1
80000024:	00f50c63          	beq	a0,a5,8000003c <Proc_6+0x2c>
80000028:	02a7f263          	bgeu	a5,a0,8000004c <Proc_6+0x3c>
8000002c:	00400793          	li	a5,4
80000030:	02f51263          	bne	a0,a5,80000054 <Proc_6+0x44>
80000034:	00e5a023          	sw	a4,0(a1)
80000038:	00008067          	ret
8000003c:	800057b7          	lui	a5,0x80005
80000040:	8b87a703          	lw	a4,-1864(a5) # 800048b8 <_end+0xffff78b8>
80000044:	06400793          	li	a5,100
80000048:	fee7d8e3          	bge	a5,a4,80000038 <Proc_6+0x28>
8000004c:	0005a023          	sw	zero,0(a1)
80000050:	00008067          	ret
80000054:	00008067          	ret
80000058:	00100793          	li	a5,1
8000005c:	00f5a023          	sw	a5,0(a1)
80000060:	00008067          	ret

80000064 <Proc_1>:
80000064:	80005737          	lui	a4,0x80005
80000068:	8c070713          	addi	a4,a4,-1856 # 800048c0 <_end+0xffff78c0>
8000006c:	00072783          	lw	a5,0(a4)
80000070:	ff010113          	addi	sp,sp,-16
80000074:	00812423          	sw	s0,8(sp)
80000078:	0007a603          	lw	a2,0(a5)
8000007c:	00052403          	lw	s0,0(a0)
80000080:	02c7a683          	lw	a3,44(a5)
80000084:	0047a283          	lw	t0,4(a5)
80000088:	0087af83          	lw	t6,8(a5)
8000008c:	0107af03          	lw	t5,16(a5)
80000090:	0147ae83          	lw	t4,20(a5)
80000094:	0187ae03          	lw	t3,24(a5)
80000098:	01c7a303          	lw	t1,28(a5)
8000009c:	0207a883          	lw	a7,32(a5)
800000a0:	0247a803          	lw	a6,36(a5)
800000a4:	0287a583          	lw	a1,40(a5)
800000a8:	00912223          	sw	s1,4(sp)
800000ac:	00112623          	sw	ra,12(sp)
800000b0:	00c42023          	sw	a2,0(s0)
800000b4:	00052603          	lw	a2,0(a0)
800000b8:	02d42623          	sw	a3,44(s0)
800000bc:	00542223          	sw	t0,4(s0)
800000c0:	01f42423          	sw	t6,8(s0)
800000c4:	01e42823          	sw	t5,16(s0)
800000c8:	01d42a23          	sw	t4,20(s0)
800000cc:	01c42c23          	sw	t3,24(s0)
800000d0:	00642e23          	sw	t1,28(s0)
800000d4:	03142023          	sw	a7,32(s0)
800000d8:	03042223          	sw	a6,36(s0)
800000dc:	02b42423          	sw	a1,40(s0)
800000e0:	00500693          	li	a3,5
800000e4:	00d52623          	sw	a3,12(a0)
800000e8:	00c42023          	sw	a2,0(s0)
800000ec:	0007a483          	lw	s1,0(a5)
800000f0:	800057b7          	lui	a5,0x80005
800000f4:	8b87a783          	lw	a5,-1864(a5) # 800048b8 <_end+0xffff78b8>
800000f8:	00942023          	sw	s1,0(s0)
800000fc:	00072703          	lw	a4,0(a4)
80000100:	00c78793          	addi	a5,a5,12
80000104:	00d42623          	sw	a3,12(s0)
80000108:	00f72623          	sw	a5,12(a4)
8000010c:	00442783          	lw	a5,4(s0)
80000110:	06078e63          	beqz	a5,8000018c <Proc_1+0x128>
80000114:	00052783          	lw	a5,0(a0)
80000118:	00c12083          	lw	ra,12(sp)
8000011c:	00812403          	lw	s0,8(sp)
80000120:	0007af83          	lw	t6,0(a5)
80000124:	0047af03          	lw	t5,4(a5)
80000128:	0087ae83          	lw	t4,8(a5)
8000012c:	00c7ae03          	lw	t3,12(a5)
80000130:	0107a303          	lw	t1,16(a5)
80000134:	0147a883          	lw	a7,20(a5)
80000138:	0187a803          	lw	a6,24(a5)
8000013c:	01c7a583          	lw	a1,28(a5)
80000140:	0207a603          	lw	a2,32(a5)
80000144:	0247a683          	lw	a3,36(a5)
80000148:	0287a703          	lw	a4,40(a5)
8000014c:	02c7a783          	lw	a5,44(a5)
80000150:	01f52023          	sw	t6,0(a0)
80000154:	01e52223          	sw	t5,4(a0)
80000158:	01d52423          	sw	t4,8(a0)
8000015c:	01c52623          	sw	t3,12(a0)
80000160:	00652823          	sw	t1,16(a0)
80000164:	01152a23          	sw	a7,20(a0)
80000168:	01052c23          	sw	a6,24(a0)
8000016c:	00b52e23          	sw	a1,28(a0)
80000170:	02c52023          	sw	a2,32(a0)
80000174:	02d52223          	sw	a3,36(a0)
80000178:	02e52423          	sw	a4,40(a0)
8000017c:	02f52623          	sw	a5,44(a0)
80000180:	00412483          	lw	s1,4(sp)
80000184:	01010113          	addi	sp,sp,16
80000188:	00008067          	ret
8000018c:	00852503          	lw	a0,8(a0)
80000190:	00600793          	li	a5,6
80000194:	00f42623          	sw	a5,12(s0)
80000198:	00840593          	addi	a1,s0,8
8000019c:	e75ff0ef          	jal	ra,80000010 <Proc_6>
800001a0:	01200793          	li	a5,18
800001a4:	00942023          	sw	s1,0(s0)
800001a8:	00c12083          	lw	ra,12(sp)
800001ac:	00f42623          	sw	a5,12(s0)
800001b0:	00812403          	lw	s0,8(sp)
800001b4:	00412483          	lw	s1,4(sp)
800001b8:	01010113          	addi	sp,sp,16
800001bc:	00008067          	ret

800001c0 <main>:
800001c0:	f5010113          	addi	sp,sp,-176
800001c4:	09812423          	sw	s8,136(sp)
800001c8:	0a112623          	sw	ra,172(sp)
800001cc:	0a812423          	sw	s0,168(sp)
800001d0:	0a912223          	sw	s1,164(sp)
800001d4:	0b212023          	sw	s2,160(sp)
800001d8:	09312e23          	sw	s3,156(sp)
800001dc:	09412c23          	sw	s4,152(sp)
800001e0:	09512a23          	sw	s5,148(sp)
800001e4:	09612823          	sw	s6,144(sp)
800001e8:	09712623          	sw	s7,140(sp)
800001ec:	09912223          	sw	s9,132(sp)
800001f0:	09a12023          	sw	s10,128(sp)
800001f4:	07b12e23          	sw	s11,124(sp)
800001f8:	19d000ef          	jal	ra,80000b94 <ioe_init>
800001fc:	80002737          	lui	a4,0x80002
80000200:	ac470713          	addi	a4,a4,-1340 # 80001ac4 <_end+0xffff4ac4>
80000204:	00072783          	lw	a5,0(a4)
80000208:	00000c13          	li	s8,0
8000020c:	0037f693          	andi	a3,a5,3
80000210:	00068c63          	beqz	a3,80000228 <main+0x68>
80000214:	00178693          	addi	a3,a5,1
80000218:	0036f613          	andi	a2,a3,3
8000021c:	00068793          	mv	a5,a3
80000220:	00168693          	addi	a3,a3,1
80000224:	fe061ae3          	bnez	a2,80000218 <main+0x58>
80000228:	800056b7          	lui	a3,0x80005
8000022c:	8bc68693          	addi	a3,a3,-1860 # 800048bc <_end+0xffff78bc>
80000230:	00d12823          	sw	a3,16(sp)
80000234:	00f6a023          	sw	a5,0(a3)
80000238:	0037f693          	andi	a3,a5,3
8000023c:	03078513          	addi	a0,a5,48
80000240:	00068c63          	beqz	a3,80000258 <main+0x98>
80000244:	03178693          	addi	a3,a5,49
80000248:	0036f613          	andi	a2,a3,3
8000024c:	00068513          	mv	a0,a3
80000250:	00168693          	addi	a3,a3,1
80000254:	fe061ae3          	bnez	a2,80000248 <main+0x88>
80000258:	80005d37          	lui	s10,0x80005
8000025c:	8c0d0d13          	addi	s10,s10,-1856 # 800048c0 <_end+0xffff78c0>
80000260:	00ad2023          	sw	a0,0(s10)
80000264:	00f52023          	sw	a5,0(a0)
80000268:	00200793          	li	a5,2
8000026c:	80001637          	lui	a2,0x80001
80000270:	00f52423          	sw	a5,8(a0)
80000274:	02800793          	li	a5,40
80000278:	03050693          	addi	a3,a0,48
8000027c:	54860593          	addi	a1,a2,1352 # 80001548 <_end+0xffff4548>
80000280:	00f52623          	sw	a5,12(a0)
80000284:	00052223          	sw	zero,4(a0)
80000288:	01050513          	addi	a0,a0,16
8000028c:	00d72023          	sw	a3,0(a4)
80000290:	271000ef          	jal	ra,80000d00 <strcpy>
80000294:	800017b7          	lui	a5,0x80001
80000298:	56878593          	addi	a1,a5,1384 # 80001568 <_end+0xffff4568>
8000029c:	03010513          	addi	a0,sp,48
800002a0:	261000ef          	jal	ra,80000d00 <strcpy>
800002a4:	80002437          	lui	s0,0x80002
800002a8:	00a00793          	li	a5,10
800002ac:	d9440413          	addi	s0,s0,-620 # 80001d94 <_end+0xffff4d94>
800002b0:	800015b7          	lui	a1,0x80001
800002b4:	80001537          	lui	a0,0x80001
800002b8:	58858593          	addi	a1,a1,1416 # 80001588 <_end+0xffff4588>
800002bc:	64f42e23          	sw	a5,1628(s0)
800002c0:	59850513          	addi	a0,a0,1432 # 80001598 <_end+0xffff4598>
800002c4:	55d000ef          	jal	ra,80001020 <printf>
800002c8:	0007a737          	lui	a4,0x7a
800002cc:	800057b7          	lui	a5,0x80005
800002d0:	80001537          	lui	a0,0x80001
800002d4:	8b078793          	addi	a5,a5,-1872 # 800048b0 <_end+0xffff78b0>
800002d8:	12070593          	addi	a1,a4,288 # 7a120 <_entry_offset+0x7a120>
800002dc:	5bc50513          	addi	a0,a0,1468 # 800015bc <_end+0xffff45bc>
800002e0:	00f12a23          	sw	a5,20(sp)
800002e4:	0007a023          	sw	zero,0(a5)
800002e8:	539000ef          	jal	ra,80001020 <printf>
800002ec:	05010593          	addi	a1,sp,80
800002f0:	00600513          	li	a0,6
800002f4:	0f9000ef          	jal	ra,80000bec <ioe_read>
800002f8:	05012503          	lw	a0,80(sp)
800002fc:	05412583          	lw	a1,84(sp)
80000300:	800057b7          	lui	a5,0x80005
80000304:	8a478793          	addi	a5,a5,-1884 # 800048a4 <_end+0xffff78a4>
80000308:	3e800613          	li	a2,1000
8000030c:	00000693          	li	a3,0
80000310:	00078493          	mv	s1,a5
80000314:	00f12c23          	sw	a5,24(sp)
80000318:	10c010ef          	jal	ra,80001424 <__udivdi3>
8000031c:	0007a737          	lui	a4,0x7a
80000320:	00a4a023          	sw	a0,0(s1)
80000324:	800059b7          	lui	s3,0x80005
80000328:	80005bb7          	lui	s7,0x80005
8000032c:	80005937          	lui	s2,0x80005
80000330:	800024b7          	lui	s1,0x80002
80000334:	80003db7          	lui	s11,0x80003
80000338:	80005ab7          	lui	s5,0x80005
8000033c:	12170793          	addi	a5,a4,289 # 7a121 <_entry_offset+0x7a121>
80000340:	00100c93          	li	s9,1
80000344:	8ac98993          	addi	s3,s3,-1876 # 800048ac <_end+0xffff78ac>
80000348:	8a8b8b93          	addi	s7,s7,-1880 # 800048a8 <_end+0xffff78a8>
8000034c:	8ad90913          	addi	s2,s2,-1875 # 800048ad <_end+0xffff78ad>
80000350:	ccc48493          	addi	s1,s1,-820 # 80001ccc <_end+0xffff4ccc>
80000354:	d94d8d93          	addi	s11,s11,-620 # 80002d94 <_end+0xffff5d94>
80000358:	8b8a8a93          	addi	s5,s5,-1864 # 800048b8 <_end+0xffff78b8>
8000035c:	04300b13          	li	s6,67
80000360:	80001a37          	lui	s4,0x80001
80000364:	00f12623          	sw	a5,12(sp)
80000368:	800017b7          	lui	a5,0x80001
8000036c:	5e078593          	addi	a1,a5,1504 # 800015e0 <_end+0xffff45e0>
80000370:	04100793          	li	a5,65
80000374:	00f98023          	sb	a5,0(s3)
80000378:	00100793          	li	a5,1
8000037c:	00fba023          	sw	a5,0(s7)
80000380:	05010513          	addi	a0,sp,80
80000384:	04200793          	li	a5,66
80000388:	00f90023          	sb	a5,0(s2)
8000038c:	175000ef          	jal	ra,80000d00 <strcpy>
80000390:	03214783          	lbu	a5,50(sp)
80000394:	05314703          	lbu	a4,83(sp)
80000398:	00000693          	li	a3,0
8000039c:	72e78a63          	beq	a5,a4,80000ad0 <main+0x910>
800003a0:	00068463          	beqz	a3,800003a8 <main+0x1e8>
800003a4:	01898023          	sb	s8,0(s3)
800003a8:	05010593          	addi	a1,sp,80
800003ac:	03010513          	addi	a0,sp,48
800003b0:	18d000ef          	jal	ra,80000d3c <strcmp>
800003b4:	65c42703          	lw	a4,1628(s0)
800003b8:	00050613          	mv	a2,a0
800003bc:	000d2503          	lw	a0,0(s10)
800003c0:	00800693          	li	a3,8
800003c4:	00700793          	li	a5,7
800003c8:	00170713          	addi	a4,a4,1
800003cc:	00162613          	slti	a2,a2,1
800003d0:	02f4a023          	sw	a5,32(s1)
800003d4:	02f4a223          	sw	a5,36(s1)
800003d8:	08d4ac23          	sw	a3,152(s1)
800003dc:	66d42023          	sw	a3,1632(s0)
800003e0:	66d42223          	sw	a3,1636(s0)
800003e4:	64e42e23          	sw	a4,1628(s0)
800003e8:	60fda023          	sw	a5,1536(s11)
800003ec:	00500793          	li	a5,5
800003f0:	00cba023          	sw	a2,0(s7)
800003f4:	00faa023          	sw	a5,0(s5)
800003f8:	c6dff0ef          	jal	ra,80000064 <Proc_1>
800003fc:	00094683          	lbu	a3,0(s2)
80000400:	04000713          	li	a4,64
80000404:	04100793          	li	a5,65
80000408:	00100813          	li	a6,1
8000040c:	00300613          	li	a2,3
80000410:	6cd77663          	bgeu	a4,a3,80000adc <main+0x91c>
80000414:	00094703          	lbu	a4,0(s2)
80000418:	00178793          	addi	a5,a5,1
8000041c:	0ff7f793          	zext.b	a5,a5
80000420:	600a0593          	addi	a1,s4,1536 # 80001600 <_end+0xffff4600>
80000424:	05010513          	addi	a0,sp,80
80000428:	04f76063          	bltu	a4,a5,80000468 <main+0x2a8>
8000042c:	00000713          	li	a4,0
80000430:	69678a63          	beq	a5,s6,80000ac4 <main+0x904>
80000434:	fee810e3          	bne	a6,a4,80000414 <main+0x254>
80000438:	00f12423          	sw	a5,8(sp)
8000043c:	0c5000ef          	jal	ra,80000d00 <strcpy>
80000440:	00812783          	lw	a5,8(sp)
80000444:	00094703          	lbu	a4,0(s2)
80000448:	019aa023          	sw	s9,0(s5)
8000044c:	00178793          	addi	a5,a5,1
80000450:	0ff7f793          	zext.b	a5,a5
80000454:	00000813          	li	a6,0
80000458:	000c8613          	mv	a2,s9
8000045c:	600a0593          	addi	a1,s4,1536
80000460:	05010513          	addi	a0,sp,80
80000464:	fcf774e3          	bgeu	a4,a5,8000042c <main+0x26c>
80000468:	00161793          	slli	a5,a2,0x1
8000046c:	00c787b3          	add	a5,a5,a2
80000470:	00700713          	li	a4,7
80000474:	02e7c733          	div	a4,a5,a4
80000478:	ff978793          	addi	a5,a5,-7
8000047c:	00379693          	slli	a3,a5,0x3
80000480:	40f687b3          	sub	a5,a3,a5
80000484:	40e787b3          	sub	a5,a5,a4
80000488:	0009c683          	lbu	a3,0(s3)
8000048c:	04100613          	li	a2,65
80000490:	00c69863          	bne	a3,a2,800004a0 <main+0x2e0>
80000494:	000aa683          	lw	a3,0(s5)
80000498:	00970713          	addi	a4,a4,9
8000049c:	40d70733          	sub	a4,a4,a3
800004a0:	00c12683          	lw	a3,12(sp)
800004a4:	001c8c93          	addi	s9,s9,1
800004a8:	ecdc90e3          	bne	s9,a3,80000368 <main+0x1a8>
800004ac:	02810593          	addi	a1,sp,40
800004b0:	00600513          	li	a0,6
800004b4:	01012e23          	sw	a6,28(sp)
800004b8:	00e12623          	sw	a4,12(sp)
800004bc:	00f12423          	sw	a5,8(sp)
800004c0:	72c000ef          	jal	ra,80000bec <ioe_read>
800004c4:	02812503          	lw	a0,40(sp)
800004c8:	02c12583          	lw	a1,44(sp)
800004cc:	3e800613          	li	a2,1000
800004d0:	00000693          	li	a3,0
800004d4:	751000ef          	jal	ra,80001424 <__udivdi3>
800004d8:	01812783          	lw	a5,24(sp)
800004dc:	00050693          	mv	a3,a0
800004e0:	80005a37          	lui	s4,0x80005
800004e4:	0007a603          	lw	a2,0(a5)
800004e8:	01412783          	lw	a5,20(sp)
800004ec:	80005537          	lui	a0,0x80005
800004f0:	000aa583          	lw	a1,0(s5)
800004f4:	40c68633          	sub	a2,a3,a2
800004f8:	8c4a0a13          	addi	s4,s4,-1852 # 800048c4 <_end+0xffff78c4>
800004fc:	8ad52a23          	sw	a3,-1868(a0) # 800048b4 <_end+0xffff78b4>
80000500:	00100693          	li	a3,1
80000504:	00d7a023          	sw	a3,0(a5)
80000508:	00ca2023          	sw	a2,0(s4)
8000050c:	00500693          	li	a3,5
80000510:	00812783          	lw	a5,8(sp)
80000514:	00c12703          	lw	a4,12(sp)
80000518:	01c12803          	lw	a6,28(sp)
8000051c:	5cd58663          	beq	a1,a3,80000ae8 <main+0x928>
80000520:	80002ab7          	lui	s5,0x80002
80000524:	80001537          	lui	a0,0x80001
80000528:	ac8a8a93          	addi	s5,s5,-1336 # 80001ac8 <_end+0xffff4ac8>
8000052c:	62050513          	addi	a0,a0,1568 # 80001620 <_end+0xffff4620>
80000530:	01012a23          	sw	a6,20(sp)
80000534:	00e12623          	sw	a4,12(sp)
80000538:	00f12423          	sw	a5,8(sp)
8000053c:	000aa023          	sw	zero,0(s5)
80000540:	2e1000ef          	jal	ra,80001020 <printf>
80000544:	80001537          	lui	a0,0x80001
80000548:	00500593          	li	a1,5
8000054c:	63c50513          	addi	a0,a0,1596 # 8000163c <_end+0xffff463c>
80000550:	2d1000ef          	jal	ra,80001020 <printf>
80000554:	01412803          	lw	a6,20(sp)
80000558:	00c12703          	lw	a4,12(sp)
8000055c:	00812783          	lw	a5,8(sp)
80000560:	000ba583          	lw	a1,0(s7)
80000564:	00100693          	li	a3,1
80000568:	02d58e63          	beq	a1,a3,800005a4 <main+0x3e4>
8000056c:	80001537          	lui	a0,0x80001
80000570:	65850513          	addi	a0,a0,1624 # 80001658 <_end+0xffff4658>
80000574:	01012a23          	sw	a6,20(sp)
80000578:	00e12623          	sw	a4,12(sp)
8000057c:	00f12423          	sw	a5,8(sp)
80000580:	000aa023          	sw	zero,0(s5)
80000584:	29d000ef          	jal	ra,80001020 <printf>
80000588:	80001537          	lui	a0,0x80001
8000058c:	00100593          	li	a1,1
80000590:	63c50513          	addi	a0,a0,1596 # 8000163c <_end+0xffff463c>
80000594:	28d000ef          	jal	ra,80001020 <printf>
80000598:	01412803          	lw	a6,20(sp)
8000059c:	00c12703          	lw	a4,12(sp)
800005a0:	00812783          	lw	a5,8(sp)
800005a4:	0009c583          	lbu	a1,0(s3)
800005a8:	04100693          	li	a3,65
800005ac:	02d58e63          	beq	a1,a3,800005e8 <main+0x428>
800005b0:	80001537          	lui	a0,0x80001
800005b4:	67450513          	addi	a0,a0,1652 # 80001674 <_end+0xffff4674>
800005b8:	01012a23          	sw	a6,20(sp)
800005bc:	00e12623          	sw	a4,12(sp)
800005c0:	00f12423          	sw	a5,8(sp)
800005c4:	000aa023          	sw	zero,0(s5)
800005c8:	259000ef          	jal	ra,80001020 <printf>
800005cc:	80001537          	lui	a0,0x80001
800005d0:	04100593          	li	a1,65
800005d4:	69050513          	addi	a0,a0,1680 # 80001690 <_end+0xffff4690>
800005d8:	249000ef          	jal	ra,80001020 <printf>
800005dc:	01412803          	lw	a6,20(sp)
800005e0:	00c12703          	lw	a4,12(sp)
800005e4:	00812783          	lw	a5,8(sp)
800005e8:	00094583          	lbu	a1,0(s2)
800005ec:	04200693          	li	a3,66
800005f0:	02d58e63          	beq	a1,a3,8000062c <main+0x46c>
800005f4:	80001537          	lui	a0,0x80001
800005f8:	6ac50513          	addi	a0,a0,1708 # 800016ac <_end+0xffff46ac>
800005fc:	01012a23          	sw	a6,20(sp)
80000600:	00e12623          	sw	a4,12(sp)
80000604:	00f12423          	sw	a5,8(sp)
80000608:	000aa023          	sw	zero,0(s5)
8000060c:	215000ef          	jal	ra,80001020 <printf>
80000610:	80001537          	lui	a0,0x80001
80000614:	04200593          	li	a1,66
80000618:	69050513          	addi	a0,a0,1680 # 80001690 <_end+0xffff4690>
8000061c:	205000ef          	jal	ra,80001020 <printf>
80000620:	01412803          	lw	a6,20(sp)
80000624:	00c12703          	lw	a4,12(sp)
80000628:	00812783          	lw	a5,8(sp)
8000062c:	0204a583          	lw	a1,32(s1)
80000630:	00700693          	li	a3,7
80000634:	02d58e63          	beq	a1,a3,80000670 <main+0x4b0>
80000638:	80001537          	lui	a0,0x80001
8000063c:	6c850513          	addi	a0,a0,1736 # 800016c8 <_end+0xffff46c8>
80000640:	01012a23          	sw	a6,20(sp)
80000644:	00e12623          	sw	a4,12(sp)
80000648:	00f12423          	sw	a5,8(sp)
8000064c:	000aa023          	sw	zero,0(s5)
80000650:	1d1000ef          	jal	ra,80001020 <printf>
80000654:	80001537          	lui	a0,0x80001
80000658:	00700593          	li	a1,7
8000065c:	63c50513          	addi	a0,a0,1596 # 8000163c <_end+0xffff463c>
80000660:	1c1000ef          	jal	ra,80001020 <printf>
80000664:	01412803          	lw	a6,20(sp)
80000668:	00c12703          	lw	a4,12(sp)
8000066c:	00812783          	lw	a5,8(sp)
80000670:	65c42583          	lw	a1,1628(s0)
80000674:	0007a6b7          	lui	a3,0x7a
80000678:	12a68693          	addi	a3,a3,298 # 7a12a <_entry_offset+0x7a12a>
8000067c:	02d58c63          	beq	a1,a3,800006b4 <main+0x4f4>
80000680:	80001537          	lui	a0,0x80001
80000684:	6e450513          	addi	a0,a0,1764 # 800016e4 <_end+0xffff46e4>
80000688:	01012a23          	sw	a6,20(sp)
8000068c:	00e12623          	sw	a4,12(sp)
80000690:	00f12423          	sw	a5,8(sp)
80000694:	000aa023          	sw	zero,0(s5)
80000698:	189000ef          	jal	ra,80001020 <printf>
8000069c:	80001537          	lui	a0,0x80001
800006a0:	70050513          	addi	a0,a0,1792 # 80001700 <_end+0xffff4700>
800006a4:	17d000ef          	jal	ra,80001020 <printf>
800006a8:	01412803          	lw	a6,20(sp)
800006ac:	00c12703          	lw	a4,12(sp)
800006b0:	00812783          	lw	a5,8(sp)
800006b4:	000d2683          	lw	a3,0(s10)
800006b8:	0046a583          	lw	a1,4(a3)
800006bc:	02058e63          	beqz	a1,800006f8 <main+0x538>
800006c0:	80001537          	lui	a0,0x80001
800006c4:	72c50513          	addi	a0,a0,1836 # 8000172c <_end+0xffff472c>
800006c8:	01012a23          	sw	a6,20(sp)
800006cc:	00e12623          	sw	a4,12(sp)
800006d0:	00f12423          	sw	a5,8(sp)
800006d4:	000aa023          	sw	zero,0(s5)
800006d8:	149000ef          	jal	ra,80001020 <printf>
800006dc:	80001537          	lui	a0,0x80001
800006e0:	00000593          	li	a1,0
800006e4:	63c50513          	addi	a0,a0,1596 # 8000163c <_end+0xffff463c>
800006e8:	139000ef          	jal	ra,80001020 <printf>
800006ec:	01412803          	lw	a6,20(sp)
800006f0:	00c12703          	lw	a4,12(sp)
800006f4:	00812783          	lw	a5,8(sp)
800006f8:	000d2603          	lw	a2,0(s10)
800006fc:	00200693          	li	a3,2
80000700:	00862583          	lw	a1,8(a2)
80000704:	02d58e63          	beq	a1,a3,80000740 <main+0x580>
80000708:	80001537          	lui	a0,0x80001
8000070c:	75050513          	addi	a0,a0,1872 # 80001750 <_end+0xffff4750>
80000710:	01012a23          	sw	a6,20(sp)
80000714:	00e12623          	sw	a4,12(sp)
80000718:	00f12423          	sw	a5,8(sp)
8000071c:	000aa023          	sw	zero,0(s5)
80000720:	101000ef          	jal	ra,80001020 <printf>
80000724:	80001537          	lui	a0,0x80001
80000728:	00200593          	li	a1,2
8000072c:	63c50513          	addi	a0,a0,1596 # 8000163c <_end+0xffff463c>
80000730:	0f1000ef          	jal	ra,80001020 <printf>
80000734:	01412803          	lw	a6,20(sp)
80000738:	00c12703          	lw	a4,12(sp)
8000073c:	00812783          	lw	a5,8(sp)
80000740:	000d2603          	lw	a2,0(s10)
80000744:	01100693          	li	a3,17
80000748:	00c62583          	lw	a1,12(a2)
8000074c:	02d58e63          	beq	a1,a3,80000788 <main+0x5c8>
80000750:	80001537          	lui	a0,0x80001
80000754:	77450513          	addi	a0,a0,1908 # 80001774 <_end+0xffff4774>
80000758:	01012a23          	sw	a6,20(sp)
8000075c:	00e12623          	sw	a4,12(sp)
80000760:	00f12423          	sw	a5,8(sp)
80000764:	000aa023          	sw	zero,0(s5)
80000768:	0b9000ef          	jal	ra,80001020 <printf>
8000076c:	80001537          	lui	a0,0x80001
80000770:	01100593          	li	a1,17
80000774:	63c50513          	addi	a0,a0,1596 # 8000163c <_end+0xffff463c>
80000778:	0a9000ef          	jal	ra,80001020 <printf>
8000077c:	01412803          	lw	a6,20(sp)
80000780:	00c12703          	lw	a4,12(sp)
80000784:	00812783          	lw	a5,8(sp)
80000788:	000d2503          	lw	a0,0(s10)
8000078c:	00f12423          	sw	a5,8(sp)
80000790:	800017b7          	lui	a5,0x80001
80000794:	54878593          	addi	a1,a5,1352 # 80001548 <_end+0xffff4548>
80000798:	01050513          	addi	a0,a0,16
8000079c:	01012a23          	sw	a6,20(sp)
800007a0:	00e12623          	sw	a4,12(sp)
800007a4:	598000ef          	jal	ra,80000d3c <strcmp>
800007a8:	00812783          	lw	a5,8(sp)
800007ac:	00c12703          	lw	a4,12(sp)
800007b0:	01412803          	lw	a6,20(sp)
800007b4:	02050a63          	beqz	a0,800007e8 <main+0x628>
800007b8:	000d2583          	lw	a1,0(s10)
800007bc:	80001537          	lui	a0,0x80001
800007c0:	79850513          	addi	a0,a0,1944 # 80001798 <_end+0xffff4798>
800007c4:	01058593          	addi	a1,a1,16
800007c8:	000aa023          	sw	zero,0(s5)
800007cc:	055000ef          	jal	ra,80001020 <printf>
800007d0:	80001537          	lui	a0,0x80001
800007d4:	7bc50513          	addi	a0,a0,1980 # 800017bc <_end+0xffff47bc>
800007d8:	049000ef          	jal	ra,80001020 <printf>
800007dc:	01412803          	lw	a6,20(sp)
800007e0:	00c12703          	lw	a4,12(sp)
800007e4:	00812783          	lw	a5,8(sp)
800007e8:	01012683          	lw	a3,16(sp)
800007ec:	0006a683          	lw	a3,0(a3)
800007f0:	0046a583          	lw	a1,4(a3)
800007f4:	02058e63          	beqz	a1,80000830 <main+0x670>
800007f8:	80001537          	lui	a0,0x80001
800007fc:	7f450513          	addi	a0,a0,2036 # 800017f4 <_end+0xffff47f4>
80000800:	01012a23          	sw	a6,20(sp)
80000804:	00e12623          	sw	a4,12(sp)
80000808:	00f12423          	sw	a5,8(sp)
8000080c:	000aa023          	sw	zero,0(s5)
80000810:	011000ef          	jal	ra,80001020 <printf>
80000814:	80001537          	lui	a0,0x80001
80000818:	00000593          	li	a1,0
8000081c:	63c50513          	addi	a0,a0,1596 # 8000163c <_end+0xffff463c>
80000820:	001000ef          	jal	ra,80001020 <printf>
80000824:	01412803          	lw	a6,20(sp)
80000828:	00c12703          	lw	a4,12(sp)
8000082c:	00812783          	lw	a5,8(sp)
80000830:	01012683          	lw	a3,16(sp)
80000834:	0006a603          	lw	a2,0(a3)
80000838:	00100693          	li	a3,1
8000083c:	00862583          	lw	a1,8(a2)
80000840:	02d58e63          	beq	a1,a3,8000087c <main+0x6bc>
80000844:	80002537          	lui	a0,0x80002
80000848:	81c50513          	addi	a0,a0,-2020 # 8000181c <_end+0xffff481c>
8000084c:	01012a23          	sw	a6,20(sp)
80000850:	00e12623          	sw	a4,12(sp)
80000854:	00f12423          	sw	a5,8(sp)
80000858:	000aa023          	sw	zero,0(s5)
8000085c:	7c4000ef          	jal	ra,80001020 <printf>
80000860:	80001537          	lui	a0,0x80001
80000864:	00100593          	li	a1,1
80000868:	63c50513          	addi	a0,a0,1596 # 8000163c <_end+0xffff463c>
8000086c:	7b4000ef          	jal	ra,80001020 <printf>
80000870:	01412803          	lw	a6,20(sp)
80000874:	00c12703          	lw	a4,12(sp)
80000878:	00812783          	lw	a5,8(sp)
8000087c:	01012683          	lw	a3,16(sp)
80000880:	0006a603          	lw	a2,0(a3)
80000884:	01200693          	li	a3,18
80000888:	00c62583          	lw	a1,12(a2)
8000088c:	02d58e63          	beq	a1,a3,800008c8 <main+0x708>
80000890:	80002537          	lui	a0,0x80002
80000894:	84450513          	addi	a0,a0,-1980 # 80001844 <_end+0xffff4844>
80000898:	01012a23          	sw	a6,20(sp)
8000089c:	00e12623          	sw	a4,12(sp)
800008a0:	00f12423          	sw	a5,8(sp)
800008a4:	000aa023          	sw	zero,0(s5)
800008a8:	778000ef          	jal	ra,80001020 <printf>
800008ac:	80001537          	lui	a0,0x80001
800008b0:	01200593          	li	a1,18
800008b4:	63c50513          	addi	a0,a0,1596 # 8000163c <_end+0xffff463c>
800008b8:	768000ef          	jal	ra,80001020 <printf>
800008bc:	01412803          	lw	a6,20(sp)
800008c0:	00c12703          	lw	a4,12(sp)
800008c4:	00812783          	lw	a5,8(sp)
800008c8:	01012403          	lw	s0,16(sp)
800008cc:	00f12423          	sw	a5,8(sp)
800008d0:	800017b7          	lui	a5,0x80001
800008d4:	00042503          	lw	a0,0(s0)
800008d8:	54878593          	addi	a1,a5,1352 # 80001548 <_end+0xffff4548>
800008dc:	01012a23          	sw	a6,20(sp)
800008e0:	01050513          	addi	a0,a0,16
800008e4:	00e12623          	sw	a4,12(sp)
800008e8:	454000ef          	jal	ra,80000d3c <strcmp>
800008ec:	00812783          	lw	a5,8(sp)
800008f0:	00c12703          	lw	a4,12(sp)
800008f4:	01412803          	lw	a6,20(sp)
800008f8:	02050c63          	beqz	a0,80000930 <main+0x770>
800008fc:	00042583          	lw	a1,0(s0)
80000900:	80002537          	lui	a0,0x80002
80000904:	86c50513          	addi	a0,a0,-1940 # 8000186c <_end+0xffff486c>
80000908:	01058593          	addi	a1,a1,16
8000090c:	01012823          	sw	a6,16(sp)
80000910:	000aa023          	sw	zero,0(s5)
80000914:	70c000ef          	jal	ra,80001020 <printf>
80000918:	80001537          	lui	a0,0x80001
8000091c:	7bc50513          	addi	a0,a0,1980 # 800017bc <_end+0xffff47bc>
80000920:	700000ef          	jal	ra,80001020 <printf>
80000924:	01012803          	lw	a6,16(sp)
80000928:	00c12703          	lw	a4,12(sp)
8000092c:	00812783          	lw	a5,8(sp)
80000930:	00500693          	li	a3,5
80000934:	02d70c63          	beq	a4,a3,8000096c <main+0x7ac>
80000938:	80002537          	lui	a0,0x80002
8000093c:	00070593          	mv	a1,a4
80000940:	89450513          	addi	a0,a0,-1900 # 80001894 <_end+0xffff4894>
80000944:	01012623          	sw	a6,12(sp)
80000948:	00f12423          	sw	a5,8(sp)
8000094c:	000aa023          	sw	zero,0(s5)
80000950:	6d0000ef          	jal	ra,80001020 <printf>
80000954:	80001537          	lui	a0,0x80001
80000958:	00500593          	li	a1,5
8000095c:	63c50513          	addi	a0,a0,1596 # 8000163c <_end+0xffff463c>
80000960:	6c0000ef          	jal	ra,80001020 <printf>
80000964:	00c12803          	lw	a6,12(sp)
80000968:	00812783          	lw	a5,8(sp)
8000096c:	00d00713          	li	a4,13
80000970:	02e78863          	beq	a5,a4,800009a0 <main+0x7e0>
80000974:	80002537          	lui	a0,0x80002
80000978:	00078593          	mv	a1,a5
8000097c:	8b050513          	addi	a0,a0,-1872 # 800018b0 <_end+0xffff48b0>
80000980:	01012423          	sw	a6,8(sp)
80000984:	000aa023          	sw	zero,0(s5)
80000988:	698000ef          	jal	ra,80001020 <printf>
8000098c:	80001537          	lui	a0,0x80001
80000990:	00d00593          	li	a1,13
80000994:	63c50513          	addi	a0,a0,1596 # 8000163c <_end+0xffff463c>
80000998:	688000ef          	jal	ra,80001020 <printf>
8000099c:	00812803          	lw	a6,8(sp)
800009a0:	02081463          	bnez	a6,800009c8 <main+0x808>
800009a4:	80002537          	lui	a0,0x80002
800009a8:	00000593          	li	a1,0
800009ac:	8cc50513          	addi	a0,a0,-1844 # 800018cc <_end+0xffff48cc>
800009b0:	000aa023          	sw	zero,0(s5)
800009b4:	66c000ef          	jal	ra,80001020 <printf>
800009b8:	80001537          	lui	a0,0x80001
800009bc:	00100593          	li	a1,1
800009c0:	63c50513          	addi	a0,a0,1596 # 8000163c <_end+0xffff463c>
800009c4:	65c000ef          	jal	ra,80001020 <printf>
800009c8:	800017b7          	lui	a5,0x80001
800009cc:	56878593          	addi	a1,a5,1384 # 80001568 <_end+0xffff4568>
800009d0:	03010513          	addi	a0,sp,48
800009d4:	368000ef          	jal	ra,80000d3c <strcmp>
800009d8:	02050263          	beqz	a0,800009fc <main+0x83c>
800009dc:	80002537          	lui	a0,0x80002
800009e0:	03010593          	addi	a1,sp,48
800009e4:	8e850513          	addi	a0,a0,-1816 # 800018e8 <_end+0xffff48e8>
800009e8:	000aa023          	sw	zero,0(s5)
800009ec:	634000ef          	jal	ra,80001020 <printf>
800009f0:	80002537          	lui	a0,0x80002
800009f4:	90450513          	addi	a0,a0,-1788 # 80001904 <_end+0xffff4904>
800009f8:	628000ef          	jal	ra,80001020 <printf>
800009fc:	800017b7          	lui	a5,0x80001
80000a00:	5e078593          	addi	a1,a5,1504 # 800015e0 <_end+0xffff45e0>
80000a04:	05010513          	addi	a0,sp,80
80000a08:	334000ef          	jal	ra,80000d3c <strcmp>
80000a0c:	02050263          	beqz	a0,80000a30 <main+0x870>
80000a10:	80002537          	lui	a0,0x80002
80000a14:	05010593          	addi	a1,sp,80
80000a18:	93c50513          	addi	a0,a0,-1732 # 8000193c <_end+0xffff493c>
80000a1c:	000aa023          	sw	zero,0(s5)
80000a20:	600000ef          	jal	ra,80001020 <printf>
80000a24:	80002537          	lui	a0,0x80002
80000a28:	95850513          	addi	a0,a0,-1704 # 80001958 <_end+0xffff4958>
80000a2c:	5f4000ef          	jal	ra,80001020 <printf>
80000a30:	000a2583          	lw	a1,0(s4)
80000a34:	80002537          	lui	a0,0x80002
80000a38:	99050513          	addi	a0,a0,-1648 # 80001990 <_end+0xffff4990>
80000a3c:	5e4000ef          	jal	ra,80001020 <printf>
80000a40:	80002537          	lui	a0,0x80002
80000a44:	9a450513          	addi	a0,a0,-1628 # 800019a4 <_end+0xffff49a4>
80000a48:	5d8000ef          	jal	ra,80001020 <printf>
80000a4c:	000aa783          	lw	a5,0(s5)
80000a50:	0a079263          	bnez	a5,80000af4 <main+0x934>
80000a54:	800015b7          	lui	a1,0x80001
80000a58:	54058593          	addi	a1,a1,1344 # 80001540 <_end+0xffff4540>
80000a5c:	000a2603          	lw	a2,0(s4)
80000a60:	000d77b7          	lui	a5,0xd7
80000a64:	10478793          	addi	a5,a5,260 # d7104 <_entry_offset+0xd7104>
80000a68:	02c7c633          	div	a2,a5,a2
80000a6c:	80002537          	lui	a0,0x80002
80000a70:	9d850513          	addi	a0,a0,-1576 # 800019d8 <_end+0xffff49d8>
80000a74:	5ac000ef          	jal	ra,80001020 <printf>
80000a78:	80002537          	lui	a0,0x80002
80000a7c:	9f850513          	addi	a0,a0,-1544 # 800019f8 <_end+0xffff49f8>
80000a80:	5a0000ef          	jal	ra,80001020 <printf>
80000a84:	0ac12083          	lw	ra,172(sp)
80000a88:	0a812403          	lw	s0,168(sp)
80000a8c:	0a412483          	lw	s1,164(sp)
80000a90:	0a012903          	lw	s2,160(sp)
80000a94:	09c12983          	lw	s3,156(sp)
80000a98:	09812a03          	lw	s4,152(sp)
80000a9c:	09412a83          	lw	s5,148(sp)
80000aa0:	09012b03          	lw	s6,144(sp)
80000aa4:	08c12b83          	lw	s7,140(sp)
80000aa8:	08812c03          	lw	s8,136(sp)
80000aac:	08412c83          	lw	s9,132(sp)
80000ab0:	08012d03          	lw	s10,128(sp)
80000ab4:	07c12d83          	lw	s11,124(sp)
80000ab8:	00000513          	li	a0,0
80000abc:	0b010113          	addi	sp,sp,176
80000ac0:	00008067          	ret
80000ac4:	00f98023          	sb	a5,0(s3)
80000ac8:	00100713          	li	a4,1
80000acc:	969ff06f          	j	80000434 <main+0x274>
80000ad0:	00100693          	li	a3,1
80000ad4:	00078c13          	mv	s8,a5
80000ad8:	8c5ff06f          	j	8000039c <main+0x1dc>
80000adc:	00d00793          	li	a5,13
80000ae0:	00100713          	li	a4,1
80000ae4:	9a5ff06f          	j	80000488 <main+0x2c8>
80000ae8:	80002ab7          	lui	s5,0x80002
80000aec:	ac8a8a93          	addi	s5,s5,-1336 # 80001ac8 <_end+0xffff4ac8>
80000af0:	a71ff06f          	j	80000560 <main+0x3a0>
80000af4:	800015b7          	lui	a1,0x80001
80000af8:	53858593          	addi	a1,a1,1336 # 80001538 <_end+0xffff4538>
80000afc:	f61ff06f          	j	80000a5c <main+0x89c>

80000b00 <__am_timer_config>:
80000b00:	00100793          	li	a5,1
80000b04:	00f50023          	sb	a5,0(a0)
80000b08:	00f500a3          	sb	a5,1(a0)
80000b0c:	00008067          	ret

80000b10 <__am_input_config>:
80000b10:	00100793          	li	a5,1
80000b14:	00f50023          	sb	a5,0(a0)
80000b18:	00008067          	ret

80000b1c <__am_uart_config>:
80000b1c:	00050023          	sb	zero,0(a0)
80000b20:	00008067          	ret

80000b24 <__am_net_config>:
80000b24:	00050023          	sb	zero,0(a0)
80000b28:	00008067          	ret

80000b2c <fail>:
80000b2c:	ff010113          	addi	sp,sp,-16
80000b30:	00812423          	sw	s0,8(sp)
80000b34:	80002437          	lui	s0,0x80002
80000b38:	00112623          	sw	ra,12(sp)
80000b3c:	a3440413          	addi	s0,s0,-1484 # 80001a34 <_end+0xffff4a34>
80000b40:	04100513          	li	a0,65
80000b44:	00140413          	addi	s0,s0,1
80000b48:	180000ef          	jal	ra,80000cc8 <putch>
80000b4c:	00044503          	lbu	a0,0(s0)
80000b50:	fe051ae3          	bnez	a0,80000b44 <fail+0x18>
80000b54:	80002437          	lui	s0,0x80002
80000b58:	a4040413          	addi	s0,s0,-1472 # 80001a40 <_end+0xffff4a40>
80000b5c:	06100513          	li	a0,97
80000b60:	00140413          	addi	s0,s0,1
80000b64:	164000ef          	jal	ra,80000cc8 <putch>
80000b68:	00044503          	lbu	a0,0(s0)
80000b6c:	fe051ae3          	bnez	a0,80000b60 <fail+0x34>
80000b70:	80002437          	lui	s0,0x80002
80000b74:	a5c40413          	addi	s0,s0,-1444 # 80001a5c <_end+0xffff4a5c>
80000b78:	02000513          	li	a0,32
80000b7c:	00140413          	addi	s0,s0,1
80000b80:	148000ef          	jal	ra,80000cc8 <putch>
80000b84:	00044503          	lbu	a0,0(s0)
80000b88:	fe051ae3          	bnez	a0,80000b7c <fail+0x50>
80000b8c:	00100513          	li	a0,1
80000b90:	144000ef          	jal	ra,80000cd4 <halt>

80000b94 <ioe_init>:
80000b94:	800027b7          	lui	a5,0x80002
80000b98:	ff010113          	addi	sp,sp,-16
80000b9c:	acc78793          	addi	a5,a5,-1332 # 80001acc <_end+0xffff4acc>
80000ba0:	80001637          	lui	a2,0x80001
80000ba4:	00112623          	sw	ra,12(sp)
80000ba8:	20078693          	addi	a3,a5,512
80000bac:	b2c60613          	addi	a2,a2,-1236 # 80000b2c <_end+0xffff3b2c>
80000bb0:	00c0006f          	j	80000bbc <ioe_init+0x28>
80000bb4:	00478793          	addi	a5,a5,4
80000bb8:	00d78c63          	beq	a5,a3,80000bd0 <ioe_init+0x3c>
80000bbc:	0007a703          	lw	a4,0(a5)
80000bc0:	fe071ae3          	bnez	a4,80000bb4 <ioe_init+0x20>
80000bc4:	00c7a023          	sw	a2,0(a5)
80000bc8:	00478793          	addi	a5,a5,4
80000bcc:	fed798e3          	bne	a5,a3,80000bbc <ioe_init+0x28>
80000bd0:	08c000ef          	jal	ra,80000c5c <__am_gpu_init>
80000bd4:	034000ef          	jal	ra,80000c08 <__am_timer_init>
80000bd8:	0c4000ef          	jal	ra,80000c9c <__am_audio_init>
80000bdc:	00c12083          	lw	ra,12(sp)
80000be0:	00100513          	li	a0,1
80000be4:	01010113          	addi	sp,sp,16
80000be8:	00008067          	ret

80000bec <ioe_read>:
80000bec:	800027b7          	lui	a5,0x80002
80000bf0:	00251513          	slli	a0,a0,0x2
80000bf4:	acc78793          	addi	a5,a5,-1332 # 80001acc <_end+0xffff4acc>
80000bf8:	00a787b3          	add	a5,a5,a0
80000bfc:	0007a783          	lw	a5,0(a5)
80000c00:	00058513          	mv	a0,a1
80000c04:	00078067          	jr	a5

80000c08 <__am_timer_init>:
80000c08:	a00007b7          	lui	a5,0xa0000
80000c0c:	0407a423          	sw	zero,72(a5) # a0000048 <_end+0x1fff3048>
80000c10:	0407a623          	sw	zero,76(a5)
80000c14:	00008067          	ret

80000c18 <__am_timer_uptime>:
80000c18:	a00007b7          	lui	a5,0xa0000
80000c1c:	04c7a703          	lw	a4,76(a5) # a000004c <_end+0x1fff304c>
80000c20:	0487a783          	lw	a5,72(a5)
80000c24:	00e52223          	sw	a4,4(a0)
80000c28:	00f52023          	sw	a5,0(a0)
80000c2c:	00008067          	ret

80000c30 <__am_timer_rtc>:
80000c30:	76c00793          	li	a5,1900
80000c34:	00052a23          	sw	zero,20(a0)
80000c38:	00052823          	sw	zero,16(a0)
80000c3c:	00052623          	sw	zero,12(a0)
80000c40:	00052423          	sw	zero,8(a0)
80000c44:	00052223          	sw	zero,4(a0)
80000c48:	00f52023          	sw	a5,0(a0)
80000c4c:	00008067          	ret

80000c50 <__am_input_keybrd>:
80000c50:	00050023          	sb	zero,0(a0)
80000c54:	00052223          	sw	zero,4(a0)
80000c58:	00008067          	ret

80000c5c <__am_gpu_init>:
80000c5c:	00008067          	ret

80000c60 <__am_gpu_config>:
80000c60:	00100793          	li	a5,1
80000c64:	00f51023          	sh	a5,0(a0)
80000c68:	00052223          	sw	zero,4(a0)
80000c6c:	00052423          	sw	zero,8(a0)
80000c70:	00052623          	sw	zero,12(a0)
80000c74:	00008067          	ret

80000c78 <__am_gpu_fbdraw>:
80000c78:	01454783          	lbu	a5,20(a0)
80000c7c:	00078863          	beqz	a5,80000c8c <__am_gpu_fbdraw+0x14>
80000c80:	a00007b7          	lui	a5,0xa0000
80000c84:	00100713          	li	a4,1
80000c88:	10e7a223          	sw	a4,260(a5) # a0000104 <_end+0x1fff3104>
80000c8c:	00008067          	ret

80000c90 <__am_gpu_status>:
80000c90:	00100793          	li	a5,1
80000c94:	00f50023          	sb	a5,0(a0)
80000c98:	00008067          	ret

80000c9c <__am_audio_init>:
80000c9c:	00008067          	ret

80000ca0 <__am_audio_config>:
80000ca0:	00050023          	sb	zero,0(a0)
80000ca4:	00008067          	ret

80000ca8 <__am_audio_ctrl>:
80000ca8:	00008067          	ret

80000cac <__am_audio_status>:
80000cac:	00052023          	sw	zero,0(a0)
80000cb0:	00008067          	ret

80000cb4 <__am_audio_play>:
80000cb4:	00008067          	ret

80000cb8 <__am_disk_config>:
80000cb8:	00050023          	sb	zero,0(a0)
80000cbc:	00008067          	ret

80000cc0 <__am_disk_status>:
80000cc0:	00008067          	ret

80000cc4 <__am_disk_blkio>:
80000cc4:	00008067          	ret

80000cc8 <putch>:
80000cc8:	a00007b7          	lui	a5,0xa0000
80000ccc:	3ea78c23          	sb	a0,1016(a5) # a00003f8 <_end+0x1fff33f8>
80000cd0:	00008067          	ret

80000cd4 <halt>:
80000cd4:	00050513          	mv	a0,a0
80000cd8:	0000006b          	.word	0x0000006b
80000cdc:	0000006f          	j	80000cdc <halt+0x8>

80000ce0 <_trm_init>:
80000ce0:	80002537          	lui	a0,0x80002
80000ce4:	ff010113          	addi	sp,sp,-16
80000ce8:	ac050513          	addi	a0,a0,-1344 # 80001ac0 <_end+0xffff4ac0>
80000cec:	00112623          	sw	ra,12(sp)
80000cf0:	cd0ff0ef          	jal	ra,800001c0 <main>
80000cf4:	00050513          	mv	a0,a0
80000cf8:	0000006b          	.word	0x0000006b
80000cfc:	0000006f          	j	80000cfc <_trm_init+0x1c>

80000d00 <strcpy>:
80000d00:	0005c703          	lbu	a4,0(a1)
80000d04:	02070663          	beqz	a4,80000d30 <strcpy+0x30>
80000d08:	00000793          	li	a5,0
80000d0c:	00f506b3          	add	a3,a0,a5
80000d10:	00178793          	addi	a5,a5,1
80000d14:	00e68023          	sb	a4,0(a3)
80000d18:	00f58733          	add	a4,a1,a5
80000d1c:	00074703          	lbu	a4,0(a4)
80000d20:	fe0716e3          	bnez	a4,80000d0c <strcpy+0xc>
80000d24:	00f507b3          	add	a5,a0,a5
80000d28:	00078023          	sb	zero,0(a5)
80000d2c:	00008067          	ret
80000d30:	00050793          	mv	a5,a0
80000d34:	00078023          	sb	zero,0(a5)
80000d38:	00008067          	ret

80000d3c <strcmp>:
80000d3c:	00054683          	lbu	a3,0(a0)
80000d40:	00000793          	li	a5,0
80000d44:	00069a63          	bnez	a3,80000d58 <strcmp+0x1c>
80000d48:	0300006f          	j	80000d78 <strcmp+0x3c>
80000d4c:	02d71063          	bne	a4,a3,80000d6c <strcmp+0x30>
80000d50:	00064683          	lbu	a3,0(a2)
80000d54:	02068063          	beqz	a3,80000d74 <strcmp+0x38>
80000d58:	00f58733          	add	a4,a1,a5
80000d5c:	00074703          	lbu	a4,0(a4)
80000d60:	00178793          	addi	a5,a5,1
80000d64:	00f50633          	add	a2,a0,a5
80000d68:	fe0712e3          	bnez	a4,80000d4c <strcmp+0x10>
80000d6c:	40e68533          	sub	a0,a3,a4
80000d70:	00008067          	ret
80000d74:	00f585b3          	add	a1,a1,a5
80000d78:	0005c703          	lbu	a4,0(a1)
80000d7c:	40e68533          	sub	a0,a3,a4
80000d80:	00008067          	ret

80000d84 <vsprintf>:
80000d84:	0005c783          	lbu	a5,0(a1)
80000d88:	00050313          	mv	t1,a0
80000d8c:	28078063          	beqz	a5,8000100c <vsprintf+0x288>
80000d90:	f6010113          	addi	sp,sp,-160
80000d94:	800022b7          	lui	t0,0x80002
80000d98:	08812e23          	sw	s0,156(sp)
80000d9c:	08912c23          	sw	s1,152(sp)
80000da0:	09212a23          	sw	s2,148(sp)
80000da4:	09312823          	sw	s3,144(sp)
80000da8:	09412623          	sw	s4,140(sp)
80000dac:	09512423          	sw	s5,136(sp)
80000db0:	00050693          	mv	a3,a0
80000db4:	09612223          	sw	s6,132(sp)
80000db8:	00000813          	li	a6,0
80000dbc:	00100513          	li	a0,1
80000dc0:	00d00893          	li	a7,13
80000dc4:	02500f93          	li	t6,37
80000dc8:	07300413          	li	s0,115
80000dcc:	07800993          	li	s3,120
80000dd0:	00010393          	mv	t2,sp
80000dd4:	aac28293          	addi	t0,t0,-1364 # 80001aac <_end+0xffff4aac>
80000dd8:	03000a13          	li	s4,48
80000ddc:	06300913          	li	s2,99
80000de0:	06400493          	li	s1,100
80000de4:	00a00e13          	li	t3,10
80000de8:	02d00a93          	li	s5,45
80000dec:	00900f13          	li	t5,9
80000df0:	0280006f          	j	80000e18 <vsprintf+0x94>
80000df4:	15c79a63          	bne	a5,t3,80000f48 <vsprintf+0x1c4>
80000df8:	01c68023          	sb	t3,0(a3)
80000dfc:	00050813          	mv	a6,a0
80000e00:	00a306b3          	add	a3,t1,a0
80000e04:	00058713          	mv	a4,a1
80000e08:	00150513          	addi	a0,a0,1
80000e0c:	00174783          	lbu	a5,1(a4)
80000e10:	00170593          	addi	a1,a4,1
80000e14:	02078e63          	beqz	a5,80000e50 <vsprintf+0xcc>
80000e18:	00080e93          	mv	t4,a6
80000e1c:	00158713          	addi	a4,a1,1
80000e20:	00050b13          	mv	s6,a0
80000e24:	0f178463          	beq	a5,a7,80000f0c <vsprintf+0x188>
80000e28:	04f8e863          	bltu	a7,a5,80000e78 <vsprintf+0xf4>
80000e2c:	fde794e3          	bne	a5,t5,80000df4 <vsprintf+0x70>
80000e30:	01e68023          	sb	t5,0(a3)
80000e34:	00058713          	mv	a4,a1
80000e38:	00174783          	lbu	a5,1(a4)
80000e3c:	00050813          	mv	a6,a0
80000e40:	00a306b3          	add	a3,t1,a0
80000e44:	00170593          	addi	a1,a4,1
80000e48:	00150513          	addi	a0,a0,1
80000e4c:	fc0796e3          	bnez	a5,80000e18 <vsprintf+0x94>
80000e50:	00068023          	sb	zero,0(a3)
80000e54:	09c12403          	lw	s0,156(sp)
80000e58:	09812483          	lw	s1,152(sp)
80000e5c:	09412903          	lw	s2,148(sp)
80000e60:	09012983          	lw	s3,144(sp)
80000e64:	08c12a03          	lw	s4,140(sp)
80000e68:	08812a83          	lw	s5,136(sp)
80000e6c:	08412b03          	lw	s6,132(sp)
80000e70:	0a010113          	addi	sp,sp,160
80000e74:	00008067          	ret
80000e78:	0df79863          	bne	a5,t6,80000f48 <vsprintf+0x1c4>
80000e7c:	0015c783          	lbu	a5,1(a1)
80000e80:	0e878063          	beq	a5,s0,80000f60 <vsprintf+0x1dc>
80000e84:	0af46063          	bltu	s0,a5,80000f24 <vsprintf+0x1a0>
80000e88:	11278663          	beq	a5,s2,80000f94 <vsprintf+0x210>
80000e8c:	f89790e3          	bne	a5,s1,80000e0c <vsprintf+0x88>
80000e90:	00062783          	lw	a5,0(a2)
80000e94:	00460613          	addi	a2,a2,4
80000e98:	08078e63          	beqz	a5,80000f34 <vsprintf+0x1b0>
80000e9c:	1607de63          	bgez	a5,80001018 <vsprintf+0x294>
80000ea0:	01568023          	sb	s5,0(a3)
80000ea4:	40f007b3          	neg	a5,a5
80000ea8:	00038593          	mv	a1,t2
80000eac:	00000813          	li	a6,0
80000eb0:	03c7e6b3          	rem	a3,a5,t3
80000eb4:	00158593          	addi	a1,a1,1
80000eb8:	00080513          	mv	a0,a6
80000ebc:	00180813          	addi	a6,a6,1
80000ec0:	03c7c7b3          	div	a5,a5,t3
80000ec4:	00d286b3          	add	a3,t0,a3
80000ec8:	0006c683          	lbu	a3,0(a3)
80000ecc:	fed58fa3          	sb	a3,-1(a1)
80000ed0:	fe0790e3          	bnez	a5,80000eb0 <vsprintf+0x12c>
80000ed4:	016305b3          	add	a1,t1,s6
80000ed8:	00a387b3          	add	a5,t2,a0
80000edc:	00c0006f          	j	80000ee8 <vsprintf+0x164>
80000ee0:	fff7c683          	lbu	a3,-1(a5)
80000ee4:	00080793          	mv	a5,a6
80000ee8:	00d58023          	sb	a3,0(a1)
80000eec:	fff78813          	addi	a6,a5,-1
80000ef0:	00158593          	addi	a1,a1,1
80000ef4:	fef396e3          	bne	t2,a5,80000ee0 <vsprintf+0x15c>
80000ef8:	001b0813          	addi	a6,s6,1
80000efc:	00a80833          	add	a6,a6,a0
80000f00:	010306b3          	add	a3,t1,a6
80000f04:	00180513          	addi	a0,a6,1
80000f08:	f05ff06f          	j	80000e0c <vsprintf+0x88>
80000f0c:	01168023          	sb	a7,0(a3)
80000f10:	00050813          	mv	a6,a0
80000f14:	00a306b3          	add	a3,t1,a0
80000f18:	00058713          	mv	a4,a1
80000f1c:	00150513          	addi	a0,a0,1
80000f20:	eedff06f          	j	80000e0c <vsprintf+0x88>
80000f24:	ef3794e3          	bne	a5,s3,80000e0c <vsprintf+0x88>
80000f28:	00062783          	lw	a5,0(a2)
80000f2c:	00460613          	addi	a2,a2,4
80000f30:	08079063          	bnez	a5,80000fb0 <vsprintf+0x22c>
80000f34:	01468023          	sb	s4,0(a3)
80000f38:	00050813          	mv	a6,a0
80000f3c:	00a306b3          	add	a3,t1,a0
80000f40:	00150513          	addi	a0,a0,1
80000f44:	ec9ff06f          	j	80000e0c <vsprintf+0x88>
80000f48:	00f68023          	sb	a5,0(a3)
80000f4c:	00050813          	mv	a6,a0
80000f50:	00a306b3          	add	a3,t1,a0
80000f54:	00058713          	mv	a4,a1
80000f58:	00150513          	addi	a0,a0,1
80000f5c:	eb1ff06f          	j	80000e0c <vsprintf+0x88>
80000f60:	00062b03          	lw	s6,0(a2)
80000f64:	00460613          	addi	a2,a2,4
80000f68:	000b4583          	lbu	a1,0(s6)
80000f6c:	ea0580e3          	beqz	a1,80000e0c <vsprintf+0x88>
80000f70:	00a306b3          	add	a3,t1,a0
80000f74:	41d507b3          	sub	a5,a0,t4
80000f78:	feb68fa3          	sb	a1,-1(a3)
80000f7c:	00fb07b3          	add	a5,s6,a5
80000f80:	0007c583          	lbu	a1,0(a5)
80000f84:	00050813          	mv	a6,a0
80000f88:	00150513          	addi	a0,a0,1
80000f8c:	fe0592e3          	bnez	a1,80000f70 <vsprintf+0x1ec>
80000f90:	e7dff06f          	j	80000e0c <vsprintf+0x88>
80000f94:	00062783          	lw	a5,0(a2)
80000f98:	00050813          	mv	a6,a0
80000f9c:	00460613          	addi	a2,a2,4
80000fa0:	00f68023          	sb	a5,0(a3)
80000fa4:	00a306b3          	add	a3,t1,a0
80000fa8:	00150513          	addi	a0,a0,1
80000fac:	e61ff06f          	j	80000e0c <vsprintf+0x88>
80000fb0:	00038e93          	mv	t4,t2
80000fb4:	00000b13          	li	s6,0
80000fb8:	00f7f593          	andi	a1,a5,15
80000fbc:	00b285b3          	add	a1,t0,a1
80000fc0:	0005c583          	lbu	a1,0(a1)
80000fc4:	0047d793          	srli	a5,a5,0x4
80000fc8:	000b0813          	mv	a6,s6
80000fcc:	00be8023          	sb	a1,0(t4)
80000fd0:	001b0b13          	addi	s6,s6,1
80000fd4:	001e8e93          	addi	t4,t4,1
80000fd8:	fe0790e3          	bnez	a5,80000fb8 <vsprintf+0x234>
80000fdc:	010387b3          	add	a5,t2,a6
80000fe0:	00c0006f          	j	80000fec <vsprintf+0x268>
80000fe4:	fff7c583          	lbu	a1,-1(a5)
80000fe8:	000e8793          	mv	a5,t4
80000fec:	00b68023          	sb	a1,0(a3)
80000ff0:	fff78e93          	addi	t4,a5,-1
80000ff4:	00168693          	addi	a3,a3,1
80000ff8:	fef396e3          	bne	t2,a5,80000fe4 <vsprintf+0x260>
80000ffc:	00a80833          	add	a6,a6,a0
80001000:	010306b3          	add	a3,t1,a6
80001004:	00180513          	addi	a0,a6,1
80001008:	e05ff06f          	j	80000e0c <vsprintf+0x88>
8000100c:	00100513          	li	a0,1
80001010:	00030023          	sb	zero,0(t1)
80001014:	00008067          	ret
80001018:	00080b13          	mv	s6,a6
8000101c:	e8dff06f          	j	80000ea8 <vsprintf+0x124>

80001020 <printf>:
80001020:	81010113          	addi	sp,sp,-2032
80001024:	7c912223          	sw	s1,1988(sp)
80001028:	7c112623          	sw	ra,1996(sp)
8000102c:	7c812423          	sw	s0,1992(sp)
80001030:	00001eb7          	lui	t4,0x1
80001034:	fa010113          	addi	sp,sp,-96
80001038:	01010f13          	addi	t5,sp,16
8000103c:	824e8e13          	addi	t3,t4,-2012 # 824 <_entry_offset+0x824>
80001040:	01ee0e33          	add	t3,t3,t5
80001044:	00be2023          	sw	a1,0(t3)
80001048:	828e8593          	addi	a1,t4,-2008
8000104c:	01010f93          	addi	t6,sp,16
80001050:	01e585b3          	add	a1,a1,t5
80001054:	82ce8f13          	addi	t5,t4,-2004
80001058:	00c5a023          	sw	a2,0(a1)
8000105c:	01ff0f33          	add	t5,t5,t6
80001060:	00df2023          	sw	a3,0(t5)
80001064:	830e8693          	addi	a3,t4,-2000
80001068:	01f686b3          	add	a3,a3,t6
8000106c:	00e6a023          	sw	a4,0(a3)
80001070:	834e8713          	addi	a4,t4,-1996
80001074:	01f70733          	add	a4,a4,t6
80001078:	00f72023          	sw	a5,0(a4)
8000107c:	838e8713          	addi	a4,t4,-1992
80001080:	01f70733          	add	a4,a4,t6
80001084:	01072023          	sw	a6,0(a4)
80001088:	fffffe37          	lui	t3,0xfffff
8000108c:	83ce8713          	addi	a4,t4,-1988
80001090:	810e8793          	addi	a5,t4,-2032
80001094:	834e8313          	addi	t1,t4,-1996
80001098:	01f70733          	add	a4,a4,t6
8000109c:	01c787b3          	add	a5,a5,t3
800010a0:	00230333          	add	t1,t1,sp
800010a4:	01172023          	sw	a7,0(a4)
800010a8:	01f787b3          	add	a5,a5,t6
800010ac:	00050593          	mv	a1,a0
800010b0:	00030613          	mv	a2,t1
800010b4:	02010513          	addi	a0,sp,32
800010b8:	7e67ae23          	sw	t1,2044(a5)
800010bc:	00f12623          	sw	a5,12(sp)
800010c0:	cc5ff0ef          	jal	ra,80000d84 <vsprintf>
800010c4:	00050493          	mv	s1,a0
800010c8:	02014503          	lbu	a0,32(sp)
800010cc:	00050c63          	beqz	a0,800010e4 <printf+0xc4>
800010d0:	02010413          	addi	s0,sp,32
800010d4:	00140413          	addi	s0,s0,1
800010d8:	bf1ff0ef          	jal	ra,80000cc8 <putch>
800010dc:	00044503          	lbu	a0,0(s0)
800010e0:	fe051ae3          	bnez	a0,800010d4 <printf+0xb4>
800010e4:	06010113          	addi	sp,sp,96
800010e8:	7cc12083          	lw	ra,1996(sp)
800010ec:	00048513          	mv	a0,s1
800010f0:	7c812403          	lw	s0,1992(sp)
800010f4:	7c412483          	lw	s1,1988(sp)
800010f8:	7f010113          	addi	sp,sp,2032
800010fc:	00008067          	ret

80001100 <__udivmoddi4>:
80001100:	fe010113          	addi	sp,sp,-32
80001104:	01212823          	sw	s2,16(sp)
80001108:	01412423          	sw	s4,8(sp)
8000110c:	01512223          	sw	s5,4(sp)
80001110:	01612023          	sw	s6,0(sp)
80001114:	00112e23          	sw	ra,28(sp)
80001118:	00812c23          	sw	s0,24(sp)
8000111c:	00912a23          	sw	s1,20(sp)
80001120:	01312623          	sw	s3,12(sp)
80001124:	00068a93          	mv	s5,a3
80001128:	00050913          	mv	s2,a0
8000112c:	00060b13          	mv	s6,a2
80001130:	00070a13          	mv	s4,a4
80001134:	04059463          	bnez	a1,8000117c <__udivmoddi4+0x7c>
80001138:	18069863          	bnez	a3,800012c8 <__udivmoddi4+0x1c8>
8000113c:	00070863          	beqz	a4,8000114c <__udivmoddi4+0x4c>
80001140:	02c577b3          	remu	a5,a0,a2
80001144:	00072223          	sw	zero,4(a4)
80001148:	00f72023          	sw	a5,0(a4)
8000114c:	03695533          	divu	a0,s2,s6
80001150:	00000593          	li	a1,0
80001154:	01c12083          	lw	ra,28(sp)
80001158:	01812403          	lw	s0,24(sp)
8000115c:	01412483          	lw	s1,20(sp)
80001160:	01012903          	lw	s2,16(sp)
80001164:	00c12983          	lw	s3,12(sp)
80001168:	00812a03          	lw	s4,8(sp)
8000116c:	00412a83          	lw	s5,4(sp)
80001170:	00012b03          	lw	s6,0(sp)
80001174:	02010113          	addi	sp,sp,32
80001178:	00008067          	ret
8000117c:	00058993          	mv	s3,a1
80001180:	00058413          	mv	s0,a1
80001184:	0e061863          	bnez	a2,80001274 <__udivmoddi4+0x174>
80001188:	1a068263          	beqz	a3,8000132c <__udivmoddi4+0x22c>
8000118c:	20050463          	beqz	a0,80001394 <__udivmoddi4+0x294>
80001190:	fff68793          	addi	a5,a3,-1
80001194:	00d7f733          	and	a4,a5,a3
80001198:	22070c63          	beqz	a4,800013d0 <__udivmoddi4+0x2d0>
8000119c:	00068513          	mv	a0,a3
800011a0:	28c000ef          	jal	ra,8000142c <__clzsi2>
800011a4:	00050493          	mv	s1,a0
800011a8:	00098513          	mv	a0,s3
800011ac:	280000ef          	jal	ra,8000142c <__clzsi2>
800011b0:	40a48733          	sub	a4,s1,a0
800011b4:	01e00793          	li	a5,30
800011b8:	16e7ec63          	bltu	a5,a4,80001330 <__udivmoddi4+0x230>
800011bc:	00170713          	addi	a4,a4,1
800011c0:	02000e93          	li	t4,32
800011c4:	40ee8eb3          	sub	t4,t4,a4
800011c8:	01d99633          	sll	a2,s3,t4
800011cc:	00e956b3          	srl	a3,s2,a4
800011d0:	00e9d7b3          	srl	a5,s3,a4
800011d4:	01d91eb3          	sll	t4,s2,t4
800011d8:	00d66433          	or	s0,a2,a3
800011dc:	00000493          	li	s1,0
800011e0:	00000313          	li	t1,0
800011e4:	01fed693          	srli	a3,t4,0x1f
800011e8:	00141813          	slli	a6,s0,0x1
800011ec:	00d86833          	or	a6,a6,a3
800011f0:	01f45413          	srli	s0,s0,0x1f
800011f4:	00179793          	slli	a5,a5,0x1
800011f8:	0087e7b3          	or	a5,a5,s0
800011fc:	410b0e33          	sub	t3,s6,a6
80001200:	01cb36b3          	sltu	a3,s6,t3
80001204:	40fa88b3          	sub	a7,s5,a5
80001208:	40d888b3          	sub	a7,a7,a3
8000120c:	001e3e13          	seqz	t3,t3
80001210:	41c888b3          	sub	a7,a7,t3
80001214:	41f8de13          	srai	t3,a7,0x1f
80001218:	016e7433          	and	s0,t3,s6
8000121c:	40880433          	sub	s0,a6,s0
80001220:	015e7e33          	and	t3,t3,s5
80001224:	01f4d693          	srli	a3,s1,0x1f
80001228:	001e9e93          	slli	t4,t4,0x1
8000122c:	00149493          	slli	s1,s1,0x1
80001230:	00883833          	sltu	a6,a6,s0
80001234:	41c787b3          	sub	a5,a5,t3
80001238:	fff70713          	addi	a4,a4,-1
8000123c:	0064e4b3          	or	s1,s1,t1
80001240:	00deeeb3          	or	t4,t4,a3
80001244:	01f8d313          	srli	t1,a7,0x1f
80001248:	410787b3          	sub	a5,a5,a6
8000124c:	f8071ce3          	bnez	a4,800011e4 <__udivmoddi4+0xe4>
80001250:	01f4d993          	srli	s3,s1,0x1f
80001254:	001e9e93          	slli	t4,t4,0x1
80001258:	00149493          	slli	s1,s1,0x1
8000125c:	0064e533          	or	a0,s1,t1
80001260:	01d9e5b3          	or	a1,s3,t4
80001264:	ee0a08e3          	beqz	s4,80001154 <__udivmoddi4+0x54>
80001268:	008a2023          	sw	s0,0(s4)
8000126c:	00fa2223          	sw	a5,4(s4)
80001270:	ee5ff06f          	j	80001154 <__udivmoddi4+0x54>
80001274:	06068663          	beqz	a3,800012e0 <__udivmoddi4+0x1e0>
80001278:	00068513          	mv	a0,a3
8000127c:	1b0000ef          	jal	ra,8000142c <__clzsi2>
80001280:	00050493          	mv	s1,a0
80001284:	00098513          	mv	a0,s3
80001288:	1a4000ef          	jal	ra,8000142c <__clzsi2>
8000128c:	40a48733          	sub	a4,s1,a0
80001290:	01f00793          	li	a5,31
80001294:	08e7ee63          	bltu	a5,a4,80001330 <__udivmoddi4+0x230>
80001298:	00170713          	addi	a4,a4,1
8000129c:	02000793          	li	a5,32
800012a0:	00090e93          	mv	t4,s2
800012a4:	14f70863          	beq	a4,a5,800013f4 <__udivmoddi4+0x2f4>
800012a8:	40e786b3          	sub	a3,a5,a4
800012ac:	00e95633          	srl	a2,s2,a4
800012b0:	00d995b3          	sll	a1,s3,a3
800012b4:	00e9d7b3          	srl	a5,s3,a4
800012b8:	00d91eb3          	sll	t4,s2,a3
800012bc:	00c5e433          	or	s0,a1,a2
800012c0:	00000493          	li	s1,0
800012c4:	f1dff06f          	j	800011e0 <__udivmoddi4+0xe0>
800012c8:	06070663          	beqz	a4,80001334 <__udivmoddi4+0x234>
800012cc:	00aa2023          	sw	a0,0(s4)
800012d0:	00072223          	sw	zero,4(a4)
800012d4:	00000513          	li	a0,0
800012d8:	00000593          	li	a1,0
800012dc:	e79ff06f          	j	80001154 <__udivmoddi4+0x54>
800012e0:	fff60793          	addi	a5,a2,-1
800012e4:	00c7f733          	and	a4,a5,a2
800012e8:	04071c63          	bnez	a4,80001340 <__udivmoddi4+0x240>
800012ec:	000a0863          	beqz	s4,800012fc <__udivmoddi4+0x1fc>
800012f0:	00a7f7b3          	and	a5,a5,a0
800012f4:	00fa2023          	sw	a5,0(s4)
800012f8:	000a2223          	sw	zero,4(s4)
800012fc:	00100793          	li	a5,1
80001300:	0cfb0263          	beq	s6,a5,800013c4 <__udivmoddi4+0x2c4>
80001304:	000b0513          	mv	a0,s6
80001308:	1bc000ef          	jal	ra,800014c4 <__ctzsi2>
8000130c:	02000713          	li	a4,32
80001310:	40a70733          	sub	a4,a4,a0
80001314:	00050793          	mv	a5,a0
80001318:	00e99733          	sll	a4,s3,a4
8000131c:	00a95933          	srl	s2,s2,a0
80001320:	01276533          	or	a0,a4,s2
80001324:	00f9d5b3          	srl	a1,s3,a5
80001328:	e2dff06f          	j	80001154 <__udivmoddi4+0x54>
8000132c:	00100073          	ebreak
80001330:	080a1063          	bnez	s4,800013b0 <__udivmoddi4+0x2b0>
80001334:	00000513          	li	a0,0
80001338:	00000593          	li	a1,0
8000133c:	e19ff06f          	j	80001154 <__udivmoddi4+0x54>
80001340:	00060513          	mv	a0,a2
80001344:	00068493          	mv	s1,a3
80001348:	0e4000ef          	jal	ra,8000142c <__clzsi2>
8000134c:	00050993          	mv	s3,a0
80001350:	00040513          	mv	a0,s0
80001354:	0d8000ef          	jal	ra,8000142c <__clzsi2>
80001358:	40a98533          	sub	a0,s3,a0
8000135c:	02150713          	addi	a4,a0,33
80001360:	02000693          	li	a3,32
80001364:	00090e93          	mv	t4,s2
80001368:	00000793          	li	a5,0
8000136c:	e6d70ae3          	beq	a4,a3,800011e0 <__udivmoddi4+0xe0>
80001370:	01f00613          	li	a2,31
80001374:	08e66663          	bltu	a2,a4,80001400 <__udivmoddi4+0x300>
80001378:	40e686b3          	sub	a3,a3,a4
8000137c:	00e95633          	srl	a2,s2,a4
80001380:	00d415b3          	sll	a1,s0,a3
80001384:	00e457b3          	srl	a5,s0,a4
80001388:	00d91eb3          	sll	t4,s2,a3
8000138c:	00c5e433          	or	s0,a1,a2
80001390:	e51ff06f          	j	800011e0 <__udivmoddi4+0xe0>
80001394:	00070863          	beqz	a4,800013a4 <__udivmoddi4+0x2a4>
80001398:	02d5f7b3          	remu	a5,a1,a3
8000139c:	00072023          	sw	zero,0(a4)
800013a0:	00f72223          	sw	a5,4(a4)
800013a4:	0359d533          	divu	a0,s3,s5
800013a8:	00000593          	li	a1,0
800013ac:	da9ff06f          	j	80001154 <__udivmoddi4+0x54>
800013b0:	012a2023          	sw	s2,0(s4)
800013b4:	013a2223          	sw	s3,4(s4)
800013b8:	00000513          	li	a0,0
800013bc:	00000593          	li	a1,0
800013c0:	d95ff06f          	j	80001154 <__udivmoddi4+0x54>
800013c4:	00090513          	mv	a0,s2
800013c8:	00098593          	mv	a1,s3
800013cc:	d89ff06f          	j	80001154 <__udivmoddi4+0x54>
800013d0:	000a0863          	beqz	s4,800013e0 <__udivmoddi4+0x2e0>
800013d4:	00b7f7b3          	and	a5,a5,a1
800013d8:	00aa2023          	sw	a0,0(s4)
800013dc:	00fa2223          	sw	a5,4(s4)
800013e0:	000a8513          	mv	a0,s5
800013e4:	0e0000ef          	jal	ra,800014c4 <__ctzsi2>
800013e8:	00a9d533          	srl	a0,s3,a0
800013ec:	00000593          	li	a1,0
800013f0:	d65ff06f          	j	80001154 <__udivmoddi4+0x54>
800013f4:	00000793          	li	a5,0
800013f8:	00000493          	li	s1,0
800013fc:	de5ff06f          	j	800011e0 <__udivmoddi4+0xe0>
80001400:	04000693          	li	a3,64
80001404:	40e686b3          	sub	a3,a3,a4
80001408:	00150513          	addi	a0,a0,1
8000140c:	00d914b3          	sll	s1,s2,a3
80001410:	00a95eb3          	srl	t4,s2,a0
80001414:	00d416b3          	sll	a3,s0,a3
80001418:	01d6eeb3          	or	t4,a3,t4
8000141c:	00a45433          	srl	s0,s0,a0
80001420:	dc1ff06f          	j	800011e0 <__udivmoddi4+0xe0>

80001424 <__udivdi3>:
80001424:	00000713          	li	a4,0
80001428:	cd9ff06f          	j	80001100 <__udivmoddi4>

8000142c <__clzsi2>:
8000142c:	ffff05b7          	lui	a1,0xffff0
80001430:	00b575b3          	and	a1,a0,a1
80001434:	0015b593          	seqz	a1,a1
80001438:	00459593          	slli	a1,a1,0x4
8000143c:	01000793          	li	a5,16
80001440:	40b787b3          	sub	a5,a5,a1
80001444:	00010737          	lui	a4,0x10
80001448:	00f557b3          	srl	a5,a0,a5
8000144c:	f0070713          	addi	a4,a4,-256 # ff00 <_entry_offset+0xff00>
80001450:	00e7f733          	and	a4,a5,a4
80001454:	00173713          	seqz	a4,a4
80001458:	00371713          	slli	a4,a4,0x3
8000145c:	00800693          	li	a3,8
80001460:	40e686b3          	sub	a3,a3,a4
80001464:	00d7d7b3          	srl	a5,a5,a3
80001468:	0f07f613          	andi	a2,a5,240
8000146c:	00163613          	seqz	a2,a2
80001470:	00261613          	slli	a2,a2,0x2
80001474:	00400693          	li	a3,4
80001478:	40c686b3          	sub	a3,a3,a2
8000147c:	00d7d7b3          	srl	a5,a5,a3
80001480:	00c7f693          	andi	a3,a5,12
80001484:	0016b693          	seqz	a3,a3
80001488:	00169693          	slli	a3,a3,0x1
8000148c:	00200813          	li	a6,2
80001490:	40d80533          	sub	a0,a6,a3
80001494:	00a7d7b3          	srl	a5,a5,a0
80001498:	0017d513          	srli	a0,a5,0x1
8000149c:	00154513          	xori	a0,a0,1
800014a0:	00b70733          	add	a4,a4,a1
800014a4:	00157513          	andi	a0,a0,1
800014a8:	00e60633          	add	a2,a2,a4
800014ac:	40f80833          	sub	a6,a6,a5
800014b0:	40a00733          	neg	a4,a0
800014b4:	01077733          	and	a4,a4,a6
800014b8:	00c68533          	add	a0,a3,a2
800014bc:	00a70533          	add	a0,a4,a0
800014c0:	00008067          	ret

800014c4 <__ctzsi2>:
800014c4:	01051593          	slli	a1,a0,0x10
800014c8:	0105d593          	srli	a1,a1,0x10
800014cc:	0015b593          	seqz	a1,a1
800014d0:	00459593          	slli	a1,a1,0x4
800014d4:	00b557b3          	srl	a5,a0,a1
800014d8:	0ff7f613          	zext.b	a2,a5
800014dc:	00163613          	seqz	a2,a2
800014e0:	00361613          	slli	a2,a2,0x3
800014e4:	00c7d7b3          	srl	a5,a5,a2
800014e8:	00f7f693          	andi	a3,a5,15
800014ec:	0016b693          	seqz	a3,a3
800014f0:	00269693          	slli	a3,a3,0x2
800014f4:	00d7d7b3          	srl	a5,a5,a3
800014f8:	0037f713          	andi	a4,a5,3
800014fc:	00173713          	seqz	a4,a4
80001500:	00171713          	slli	a4,a4,0x1
80001504:	00e7d7b3          	srl	a5,a5,a4
80001508:	0017d513          	srli	a0,a5,0x1
8000150c:	00b60633          	add	a2,a2,a1
80001510:	0017f793          	andi	a5,a5,1
80001514:	00157593          	andi	a1,a0,1
80001518:	00200513          	li	a0,2
8000151c:	00c686b3          	add	a3,a3,a2
80001520:	40b50533          	sub	a0,a0,a1
80001524:	fff78793          	addi	a5,a5,-1
80001528:	00f57533          	and	a0,a0,a5
8000152c:	00d70733          	add	a4,a4,a3
80001530:	00e50533          	add	a0,a0,a4
80001534:	00008067          	ret
