
/home/ziqiang/ics2021/am-kernels/tests/cpu-tests/build/load-store-riscv32-nemu.elf:     file format elf32-littleriscv


Disassembly of section .text:

80000000 <_start>:
80000000:	00000413          	li	s0,0
80000004:	00009117          	auipc	sp,0x9
80000008:	ffc10113          	addi	sp,sp,-4 # 80009000 <_end>
8000000c:	1c4000ef          	jal	ra,800001d0 <_trm_init>

80000010 <check>:
80000010:	00050463          	beqz	a0,80000018 <check+0x8>
80000014:	00008067          	ret
80000018:	ff010113          	addi	sp,sp,-16
8000001c:	00100513          	li	a0,1
80000020:	00112623          	sw	ra,12(sp)
80000024:	1a0000ef          	jal	ra,800001c4 <halt>

80000028 <main>:
80000028:	fe010113          	addi	sp,sp,-32
8000002c:	00812c23          	sw	s0,24(sp)
80000030:	80000437          	lui	s0,0x80000
80000034:	00912a23          	sw	s1,20(sp)
80000038:	01312623          	sw	s3,12(sp)
8000003c:	24440493          	addi	s1,s0,580 # 80000244 <_end+0xffff7244>
80000040:	800009b7          	lui	s3,0x80000
80000044:	01212823          	sw	s2,16(sp)
80000048:	01412423          	sw	s4,8(sp)
8000004c:	24440913          	addi	s2,s0,580
80000050:	00112e23          	sw	ra,28(sp)
80000054:	1f498993          	addi	s3,s3,500 # 800001f4 <_end+0xffff71f4>
80000058:	01048a13          	addi	s4,s1,16
8000005c:	24440413          	addi	s0,s0,580
80000060:	00041503          	lh	a0,0(s0)
80000064:	0009a783          	lw	a5,0(s3)
80000068:	00240413          	addi	s0,s0,2
8000006c:	00498993          	addi	s3,s3,4
80000070:	40f50533          	sub	a0,a0,a5
80000074:	00153513          	seqz	a0,a0
80000078:	f99ff0ef          	jal	ra,80000010 <check>
8000007c:	ff4412e3          	bne	s0,s4,80000060 <main+0x38>
80000080:	80000437          	lui	s0,0x80000
80000084:	21440413          	addi	s0,s0,532 # 80000214 <_end+0xffff7214>
80000088:	0004d503          	lhu	a0,0(s1)
8000008c:	00042783          	lw	a5,0(s0)
80000090:	00248493          	addi	s1,s1,2
80000094:	00440413          	addi	s0,s0,4
80000098:	40f50533          	sub	a0,a0,a5
8000009c:	00153513          	seqz	a0,a0
800000a0:	f71ff0ef          	jal	ra,80000010 <check>
800000a4:	ff4492e3          	bne	s1,s4,80000088 <main+0x60>
800000a8:	00294683          	lbu	a3,2(s2)
800000ac:	00194603          	lbu	a2,1(s2)
800000b0:	00394703          	lbu	a4,3(s2)
800000b4:	00494783          	lbu	a5,4(s2)
800000b8:	80000437          	lui	s0,0x80000
800000bc:	23440413          	addi	s0,s0,564 # 80000234 <_end+0xffff7234>
800000c0:	00869693          	slli	a3,a3,0x8
800000c4:	00c6e6b3          	or	a3,a3,a2
800000c8:	00042503          	lw	a0,0(s0)
800000cc:	01071713          	slli	a4,a4,0x10
800000d0:	00d76733          	or	a4,a4,a3
800000d4:	01879793          	slli	a5,a5,0x18
800000d8:	00e7e7b3          	or	a5,a5,a4
800000dc:	40f50533          	sub	a0,a0,a5
800000e0:	00153513          	seqz	a0,a0
800000e4:	f2dff0ef          	jal	ra,80000010 <check>
800000e8:	00694683          	lbu	a3,6(s2)
800000ec:	00594603          	lbu	a2,5(s2)
800000f0:	00794703          	lbu	a4,7(s2)
800000f4:	00894783          	lbu	a5,8(s2)
800000f8:	00869693          	slli	a3,a3,0x8
800000fc:	00c6e6b3          	or	a3,a3,a2
80000100:	00442503          	lw	a0,4(s0)
80000104:	01071713          	slli	a4,a4,0x10
80000108:	00d76733          	or	a4,a4,a3
8000010c:	01879793          	slli	a5,a5,0x18
80000110:	00e7e7b3          	or	a5,a5,a4
80000114:	40f50533          	sub	a0,a0,a5
80000118:	00153513          	seqz	a0,a0
8000011c:	ef5ff0ef          	jal	ra,80000010 <check>
80000120:	00a94683          	lbu	a3,10(s2)
80000124:	00994603          	lbu	a2,9(s2)
80000128:	00b94703          	lbu	a4,11(s2)
8000012c:	00c94783          	lbu	a5,12(s2)
80000130:	00869693          	slli	a3,a3,0x8
80000134:	00842503          	lw	a0,8(s0)
80000138:	00c6e6b3          	or	a3,a3,a2
8000013c:	01071713          	slli	a4,a4,0x10
80000140:	00d76733          	or	a4,a4,a3
80000144:	01879793          	slli	a5,a5,0x18
80000148:	00e7e7b3          	or	a5,a5,a4
8000014c:	40f50533          	sub	a0,a0,a5
80000150:	00153513          	seqz	a0,a0
80000154:	800004b7          	lui	s1,0x80000
80000158:	eb9ff0ef          	jal	ra,80000010 <check>
8000015c:	25448493          	addi	s1,s1,596 # 80000254 <_end+0xffff7254>
80000160:	00100413          	li	s0,1
80000164:	00100a13          	li	s4,1
80000168:	01100993          	li	s3,17
8000016c:	008a17b3          	sll	a5,s4,s0
80000170:	0004a503          	lw	a0,0(s1)
80000174:	fff7c793          	not	a5,a5
80000178:	01079793          	slli	a5,a5,0x10
8000017c:	0107d793          	srli	a5,a5,0x10
80000180:	00890733          	add	a4,s2,s0
80000184:	40f50533          	sub	a0,a0,a5
80000188:	00240413          	addi	s0,s0,2
8000018c:	00153513          	seqz	a0,a0
80000190:	fef71fa3          	sh	a5,-1(a4)
80000194:	00448493          	addi	s1,s1,4
80000198:	e79ff0ef          	jal	ra,80000010 <check>
8000019c:	fd3418e3          	bne	s0,s3,8000016c <main+0x144>
800001a0:	01c12083          	lw	ra,28(sp)
800001a4:	01812403          	lw	s0,24(sp)
800001a8:	01412483          	lw	s1,20(sp)
800001ac:	01012903          	lw	s2,16(sp)
800001b0:	00c12983          	lw	s3,12(sp)
800001b4:	00812a03          	lw	s4,8(sp)
800001b8:	00000513          	li	a0,0
800001bc:	02010113          	addi	sp,sp,32
800001c0:	00008067          	ret

800001c4 <halt>:
800001c4:	00050513          	mv	a0,a0
800001c8:	0000006b          	.word	0x0000006b
800001cc:	0000006f          	j	800001cc <halt+0x8>

800001d0 <_trm_init>:
800001d0:	80000537          	lui	a0,0x80000
800001d4:	ff010113          	addi	sp,sp,-16
800001d8:	1f050513          	addi	a0,a0,496 # 800001f0 <_end+0xffff71f0>
800001dc:	00112623          	sw	ra,12(sp)
800001e0:	e49ff0ef          	jal	ra,80000028 <main>
800001e4:	00050513          	mv	a0,a0
800001e8:	0000006b          	.word	0x0000006b
800001ec:	0000006f          	j	800001ec <_trm_init+0x1c>
