
/home/ziqiang/ics2021/am-kernels/tests/cpu-tests/build/select-sort-riscv32-nemu.elf:     file format elf32-littleriscv


Disassembly of section .text:

80000000 <_start>:
80000000:	00000413          	li	s0,0
80000004:	00009117          	auipc	sp,0x9
80000008:	ffc10113          	addi	sp,sp,-4 # 80009000 <_end>
8000000c:	134000ef          	jal	ra,80000140 <_trm_init>

80000010 <check>:
80000010:	00050463          	beqz	a0,80000018 <check+0x8>
80000014:	00008067          	ret
80000018:	ff010113          	addi	sp,sp,-16
8000001c:	00100513          	li	a0,1
80000020:	00112623          	sw	ra,12(sp)
80000024:	110000ef          	jal	ra,80000134 <halt>

80000028 <select_sort>:
80000028:	80000e37          	lui	t3,0x80000
8000002c:	164e0e13          	addi	t3,t3,356 # 80000164 <_end+0xffff7164>
80000030:	004e0893          	addi	a7,t3,4
80000034:	00000813          	li	a6,0
80000038:	01400513          	li	a0,20
8000003c:	01300e93          	li	t4,19
80000040:	ffc8a303          	lw	t1,-4(a7)
80000044:	00080593          	mv	a1,a6
80000048:	00180813          	addi	a6,a6,1
8000004c:	00088713          	mv	a4,a7
80000050:	00030613          	mv	a2,t1
80000054:	00080793          	mv	a5,a6
80000058:	00072683          	lw	a3,0(a4)
8000005c:	00470713          	addi	a4,a4,4
80000060:	00c6d663          	bge	a3,a2,8000006c <select_sort+0x44>
80000064:	00078593          	mv	a1,a5
80000068:	00068613          	mv	a2,a3
8000006c:	00178793          	addi	a5,a5,1
80000070:	fea794e3          	bne	a5,a0,80000058 <select_sort+0x30>
80000074:	00259593          	slli	a1,a1,0x2
80000078:	fec8ae23          	sw	a2,-4(a7)
8000007c:	00be05b3          	add	a1,t3,a1
80000080:	0065a023          	sw	t1,0(a1)
80000084:	00488893          	addi	a7,a7,4
80000088:	fbd81ce3          	bne	a6,t4,80000040 <select_sort+0x18>
8000008c:	00008067          	ret

80000090 <main>:
80000090:	fe010113          	addi	sp,sp,-32
80000094:	00912a23          	sw	s1,20(sp)
80000098:	800004b7          	lui	s1,0x80000
8000009c:	00812c23          	sw	s0,24(sp)
800000a0:	01212823          	sw	s2,16(sp)
800000a4:	01312623          	sw	s3,12(sp)
800000a8:	00112e23          	sw	ra,28(sp)
800000ac:	16448913          	addi	s2,s1,356 # 80000164 <_end+0xffff7164>
800000b0:	f79ff0ef          	jal	ra,80000028 <select_sort>
800000b4:	16448493          	addi	s1,s1,356
800000b8:	00000413          	li	s0,0
800000bc:	01400993          	li	s3,20
800000c0:	0004a503          	lw	a0,0(s1)
800000c4:	00448493          	addi	s1,s1,4
800000c8:	40850533          	sub	a0,a0,s0
800000cc:	00153513          	seqz	a0,a0
800000d0:	00140413          	addi	s0,s0,1
800000d4:	f3dff0ef          	jal	ra,80000010 <check>
800000d8:	ff3414e3          	bne	s0,s3,800000c0 <main+0x30>
800000dc:	00100513          	li	a0,1
800000e0:	f31ff0ef          	jal	ra,80000010 <check>
800000e4:	00000413          	li	s0,0
800000e8:	f41ff0ef          	jal	ra,80000028 <select_sort>
800000ec:	01400493          	li	s1,20
800000f0:	00092503          	lw	a0,0(s2)
800000f4:	00490913          	addi	s2,s2,4
800000f8:	40850533          	sub	a0,a0,s0
800000fc:	00153513          	seqz	a0,a0
80000100:	00140413          	addi	s0,s0,1
80000104:	f0dff0ef          	jal	ra,80000010 <check>
80000108:	fe9414e3          	bne	s0,s1,800000f0 <main+0x60>
8000010c:	00100513          	li	a0,1
80000110:	f01ff0ef          	jal	ra,80000010 <check>
80000114:	01c12083          	lw	ra,28(sp)
80000118:	01812403          	lw	s0,24(sp)
8000011c:	01412483          	lw	s1,20(sp)
80000120:	01012903          	lw	s2,16(sp)
80000124:	00c12983          	lw	s3,12(sp)
80000128:	00000513          	li	a0,0
8000012c:	02010113          	addi	sp,sp,32
80000130:	00008067          	ret

80000134 <halt>:
80000134:	00050513          	mv	a0,a0
80000138:	0000006b          	.word	0x0000006b
8000013c:	0000006f          	j	8000013c <halt+0x8>

80000140 <_trm_init>:
80000140:	80000537          	lui	a0,0x80000
80000144:	ff010113          	addi	sp,sp,-16
80000148:	16050513          	addi	a0,a0,352 # 80000160 <_end+0xffff7160>
8000014c:	00112623          	sw	ra,12(sp)
80000150:	f41ff0ef          	jal	ra,80000090 <main>
80000154:	00050513          	mv	a0,a0
80000158:	0000006b          	.word	0x0000006b
8000015c:	0000006f          	j	8000015c <_trm_init+0x1c>
