
/home/ziqiang/ics2021/am-kernels/tests/klib-tests/build/write-test-riscv32-nemu.elf:     file format elf32-littleriscv


Disassembly of section .text:

80000000 <_start>:
80000000:	00000413          	li	s0,0
80000004:	00009117          	auipc	sp,0x9
80000008:	ffc10113          	addi	sp,sp,-4 # 80009000 <_end>
8000000c:	1bc000ef          	jal	ra,800001c8 <_trm_init>

80000010 <main>:
80000010:	fb010113          	addi	sp,sp,-80
80000014:	800007b7          	lui	a5,0x80000
80000018:	03512a23          	sw	s5,52(sp)
8000001c:	03612823          	sw	s6,48(sp)
80000020:	72878a93          	addi	s5,a5,1832 # 80000728 <_end+0xffff7728>
80000024:	03712623          	sw	s7,44(sp)
80000028:	01b12e23          	sw	s11,28(sp)
8000002c:	72878793          	addi	a5,a5,1832
80000030:	80000b37          	lui	s6,0x80000
80000034:	00100b93          	li	s7,1
80000038:	00100d93          	li	s11,1
8000003c:	05212023          	sw	s2,64(sp)
80000040:	04112623          	sw	ra,76(sp)
80000044:	04812423          	sw	s0,72(sp)
80000048:	04912223          	sw	s1,68(sp)
8000004c:	03312e23          	sw	s3,60(sp)
80000050:	03412c23          	sw	s4,56(sp)
80000054:	03812423          	sw	s8,40(sp)
80000058:	03912223          	sw	s9,36(sp)
8000005c:	03a12023          	sw	s10,32(sp)
80000060:	00f12623          	sw	a5,12(sp)
80000064:	00012423          	sw	zero,8(sp)
80000068:	748b0b13          	addi	s6,s6,1864 # 80000748 <_end+0xffff7748>
8000006c:	415b8bb3          	sub	s7,s7,s5
80000070:	415d8db3          	sub	s11,s11,s5
80000074:	02100913          	li	s2,33
80000078:	00812783          	lw	a5,8(sp)
8000007c:	00c12703          	lw	a4,12(sp)
80000080:	00178993          	addi	s3,a5,1
80000084:	00170c13          	addi	s8,a4,1
80000088:	00078d13          	mv	s10,a5
8000008c:	00078493          	mv	s1,a5
80000090:	00070413          	mv	s0,a4
80000094:	01312423          	sw	s3,8(sp)
80000098:	01812623          	sw	s8,12(sp)
8000009c:	00fa8a33          	add	s4,s5,a5
800000a0:	000a8793          	mv	a5,s5
800000a4:	00fb8733          	add	a4,s7,a5
800000a8:	00e78023          	sb	a4,0(a5)
800000ac:	00178793          	addi	a5,a5,1
800000b0:	fefb1ae3          	bne	s6,a5,800000a4 <main+0x94>
800000b4:	00998cb3          	add	s9,s3,s1
800000b8:	401cdc93          	srai	s9,s9,0x1
800000bc:	414c0633          	sub	a2,s8,s4
800000c0:	000c8593          	mv	a1,s9
800000c4:	00040513          	mv	a0,s0
800000c8:	120000ef          	jal	ra,800001e8 <memset>
800000cc:	000a0713          	mv	a4,s4
800000d0:	000a8693          	mv	a3,s5
800000d4:	00000793          	li	a5,0
800000d8:	03a78a63          	beq	a5,s10,8000010c <main+0xfc>
800000dc:	0006c603          	lbu	a2,0(a3)
800000e0:	00178793          	addi	a5,a5,1
800000e4:	00168693          	addi	a3,a3,1
800000e8:	fef608e3          	beq	a2,a5,800000d8 <main+0xc8>
800000ec:	01100613          	li	a2,17
800000f0:	800005b7          	lui	a1,0x80000
800000f4:	80000537          	lui	a0,0x80000
800000f8:	65458593          	addi	a1,a1,1620 # 80000654 <_end+0xffff7654>
800000fc:	69c50513          	addi	a0,a0,1692 # 8000069c <_end+0xffff769c>
80000100:	474000ef          	jal	ra,80000574 <printf>
80000104:	00100513          	li	a0,1
80000108:	0b4000ef          	jal	ra,800001bc <halt>
8000010c:	093d5a63          	bge	s10,s3,800001a0 <main+0x190>
80000110:	00074783          	lbu	a5,0(a4)
80000114:	08fc9a63          	bne	s9,a5,800001a8 <main+0x198>
80000118:	00170713          	addi	a4,a4,1
8000011c:	ff871ae3          	bne	a4,s8,80000110 <main+0x100>
80000120:	01f00793          	li	a5,31
80000124:	00198613          	addi	a2,s3,1
80000128:	0137ce63          	blt	a5,s3,80000144 <main+0x134>
8000012c:	000c0793          	mv	a5,s8
80000130:	0007c683          	lbu	a3,0(a5)
80000134:	00fd8733          	add	a4,s11,a5
80000138:	fae69ae3          	bne	a3,a4,800000ec <main+0xdc>
8000013c:	00178793          	addi	a5,a5,1
80000140:	fefb18e3          	bne	s6,a5,80000130 <main+0x120>
80000144:	001c0c13          	addi	s8,s8,1
80000148:	01260663          	beq	a2,s2,80000154 <main+0x144>
8000014c:	00060993          	mv	s3,a2
80000150:	f51ff06f          	j	800000a0 <main+0x90>
80000154:	00812703          	lw	a4,8(sp)
80000158:	02000793          	li	a5,32
8000015c:	f0f71ee3          	bne	a4,a5,80000078 <main+0x68>
80000160:	04c12083          	lw	ra,76(sp)
80000164:	04812403          	lw	s0,72(sp)
80000168:	04412483          	lw	s1,68(sp)
8000016c:	04012903          	lw	s2,64(sp)
80000170:	03c12983          	lw	s3,60(sp)
80000174:	03812a03          	lw	s4,56(sp)
80000178:	03412a83          	lw	s5,52(sp)
8000017c:	03012b03          	lw	s6,48(sp)
80000180:	02c12b83          	lw	s7,44(sp)
80000184:	02812c03          	lw	s8,40(sp)
80000188:	02412c83          	lw	s9,36(sp)
8000018c:	02012d03          	lw	s10,32(sp)
80000190:	01c12d83          	lw	s11,28(sp)
80000194:	00000513          	li	a0,0
80000198:	05010113          	addi	sp,sp,80
8000019c:	00008067          	ret
800001a0:	00198613          	addi	a2,s3,1
800001a4:	f89ff06f          	j	8000012c <main+0x11c>
800001a8:	01900613          	li	a2,25
800001ac:	f45ff06f          	j	800000f0 <main+0xe0>

800001b0 <putch>:
800001b0:	a00007b7          	lui	a5,0xa0000
800001b4:	3ea78c23          	sb	a0,1016(a5) # a00003f8 <_end+0x1fff73f8>
800001b8:	00008067          	ret

800001bc <halt>:
800001bc:	00050513          	mv	a0,a0
800001c0:	0000006b          	.word	0x0000006b
800001c4:	0000006f          	j	800001c4 <halt+0x8>

800001c8 <_trm_init>:
800001c8:	80000537          	lui	a0,0x80000
800001cc:	ff010113          	addi	sp,sp,-16
800001d0:	72450513          	addi	a0,a0,1828 # 80000724 <_end+0xffff7724>
800001d4:	00112623          	sw	ra,12(sp)
800001d8:	e39ff0ef          	jal	ra,80000010 <main>
800001dc:	00050513          	mv	a0,a0
800001e0:	0000006b          	.word	0x0000006b
800001e4:	0000006f          	j	800001e4 <_trm_init+0x1c>

800001e8 <memset>:
800001e8:	0ff5f593          	zext.b	a1,a1
800001ec:	00050793          	mv	a5,a0
800001f0:	00c50733          	add	a4,a0,a2
800001f4:	00060863          	beqz	a2,80000204 <memset+0x1c>
800001f8:	00b78023          	sb	a1,0(a5)
800001fc:	00178793          	addi	a5,a5,1
80000200:	fee79ce3          	bne	a5,a4,800001f8 <memset+0x10>
80000204:	00008067          	ret

80000208 <vsprintf>:
80000208:	0005c783          	lbu	a5,0(a1)
8000020c:	00050893          	mv	a7,a0
80000210:	34078263          	beqz	a5,80000554 <vsprintf+0x34c>
80000214:	f6010113          	addi	sp,sp,-160
80000218:	800003b7          	lui	t2,0x80000
8000021c:	800002b7          	lui	t0,0x80000
80000220:	08812e23          	sw	s0,156(sp)
80000224:	08912c23          	sw	s1,152(sp)
80000228:	09212a23          	sw	s2,148(sp)
8000022c:	09312823          	sw	s3,144(sp)
80000230:	09412623          	sw	s4,140(sp)
80000234:	09512423          	sw	s5,136(sp)
80000238:	09612223          	sw	s6,132(sp)
8000023c:	00000513          	li	a0,0
80000240:	00088693          	mv	a3,a7
80000244:	00d00813          	li	a6,13
80000248:	02500f13          	li	t5,37
8000024c:	01500413          	li	s0,21
80000250:	6b838393          	addi	t2,t2,1720 # 800006b8 <_end+0xffff76b8>
80000254:	03000493          	li	s1,48
80000258:	07800913          	li	s2,120
8000025c:	00010f93          	mv	t6,sp
80000260:	71028293          	addi	t0,t0,1808 # 80000710 <_end+0xffff7710>
80000264:	00a00313          	li	t1,10
80000268:	00900e13          	li	t3,9
8000026c:	02d00993          	li	s3,45
80000270:	0240006f          	j	80000294 <vsprintf+0x8c>
80000274:	0a679863          	bne	a5,t1,80000324 <vsprintf+0x11c>
80000278:	00150513          	addi	a0,a0,1
8000027c:	00668023          	sb	t1,0(a3)
80000280:	00058713          	mv	a4,a1
80000284:	00a886b3          	add	a3,a7,a0
80000288:	00174783          	lbu	a5,1(a4)
8000028c:	00170593          	addi	a1,a4,1
80000290:	02078a63          	beqz	a5,800002c4 <vsprintf+0xbc>
80000294:	00050e93          	mv	t4,a0
80000298:	00158713          	addi	a4,a1,1
8000029c:	07078a63          	beq	a5,a6,80000310 <vsprintf+0x108>
800002a0:	04f86663          	bltu	a6,a5,800002ec <vsprintf+0xe4>
800002a4:	fdc798e3          	bne	a5,t3,80000274 <vsprintf+0x6c>
800002a8:	01c68023          	sb	t3,0(a3)
800002ac:	00058713          	mv	a4,a1
800002b0:	00174783          	lbu	a5,1(a4)
800002b4:	00150513          	addi	a0,a0,1
800002b8:	00a886b3          	add	a3,a7,a0
800002bc:	00170593          	addi	a1,a4,1
800002c0:	fc079ae3          	bnez	a5,80000294 <vsprintf+0x8c>
800002c4:	00068023          	sb	zero,0(a3)
800002c8:	09c12403          	lw	s0,156(sp)
800002cc:	09812483          	lw	s1,152(sp)
800002d0:	09412903          	lw	s2,148(sp)
800002d4:	09012983          	lw	s3,144(sp)
800002d8:	08c12a03          	lw	s4,140(sp)
800002dc:	08812a83          	lw	s5,136(sp)
800002e0:	08412b03          	lw	s6,132(sp)
800002e4:	0a010113          	addi	sp,sp,160
800002e8:	00008067          	ret
800002ec:	03e79c63          	bne	a5,t5,80000324 <vsprintf+0x11c>
800002f0:	0015c783          	lbu	a5,1(a1)
800002f4:	f9d78793          	addi	a5,a5,-99
800002f8:	0ff7f793          	zext.b	a5,a5
800002fc:	f8f466e3          	bltu	s0,a5,80000288 <vsprintf+0x80>
80000300:	00279793          	slli	a5,a5,0x2
80000304:	007787b3          	add	a5,a5,t2
80000308:	0007a783          	lw	a5,0(a5)
8000030c:	00078067          	jr	a5
80000310:	00150513          	addi	a0,a0,1
80000314:	01068023          	sb	a6,0(a3)
80000318:	00058713          	mv	a4,a1
8000031c:	00a886b3          	add	a3,a7,a0
80000320:	f69ff06f          	j	80000288 <vsprintf+0x80>
80000324:	00150513          	addi	a0,a0,1
80000328:	00f68023          	sb	a5,0(a3)
8000032c:	00058713          	mv	a4,a1
80000330:	00a886b3          	add	a3,a7,a0
80000334:	f55ff06f          	j	80000288 <vsprintf+0x80>
80000338:	00062783          	lw	a5,0(a2)
8000033c:	00460613          	addi	a2,a2,4
80000340:	1c079263          	bnez	a5,80000504 <vsprintf+0x2fc>
80000344:	00150513          	addi	a0,a0,1
80000348:	00968023          	sb	s1,0(a3)
8000034c:	00a886b3          	add	a3,a7,a0
80000350:	f39ff06f          	j	80000288 <vsprintf+0x80>
80000354:	00062783          	lw	a5,0(a2)
80000358:	00460613          	addi	a2,a2,4
8000035c:	fe0784e3          	beqz	a5,80000344 <vsprintf+0x13c>
80000360:	00000e93          	li	t4,0
80000364:	0267f5b3          	remu	a1,a5,t1
80000368:	000e8a13          	mv	s4,t4
8000036c:	001e8e93          	addi	t4,t4,1
80000370:	01df8b33          	add	s6,t6,t4
80000374:	00078a93          	mv	s5,a5
80000378:	03058593          	addi	a1,a1,48
8000037c:	febb0fa3          	sb	a1,-1(s6)
80000380:	0267d7b3          	divu	a5,a5,t1
80000384:	ff5e60e3          	bltu	t3,s5,80000364 <vsprintf+0x15c>
80000388:	014f87b3          	add	a5,t6,s4
8000038c:	00c0006f          	j	80000398 <vsprintf+0x190>
80000390:	fff7c583          	lbu	a1,-1(a5)
80000394:	000e8793          	mv	a5,t4
80000398:	00b68023          	sb	a1,0(a3)
8000039c:	fff78e93          	addi	t4,a5,-1
800003a0:	00168693          	addi	a3,a3,1
800003a4:	feff96e3          	bne	t6,a5,80000390 <vsprintf+0x188>
800003a8:	00150513          	addi	a0,a0,1
800003ac:	01450533          	add	a0,a0,s4
800003b0:	00a886b3          	add	a3,a7,a0
800003b4:	ed5ff06f          	j	80000288 <vsprintf+0x80>
800003b8:	00062a03          	lw	s4,0(a2)
800003bc:	00460613          	addi	a2,a2,4
800003c0:	000a4583          	lbu	a1,0(s4)
800003c4:	ec0582e3          	beqz	a1,80000288 <vsprintf+0x80>
800003c8:	00150513          	addi	a0,a0,1
800003cc:	00a886b3          	add	a3,a7,a0
800003d0:	41d507b3          	sub	a5,a0,t4
800003d4:	feb68fa3          	sb	a1,-1(a3)
800003d8:	00fa07b3          	add	a5,s4,a5
800003dc:	0007c583          	lbu	a1,0(a5)
800003e0:	fe0594e3          	bnez	a1,800003c8 <vsprintf+0x1c0>
800003e4:	ea5ff06f          	j	80000288 <vsprintf+0x80>
800003e8:	00968023          	sb	s1,0(a3)
800003ec:	012680a3          	sb	s2,1(a3)
800003f0:	00062783          	lw	a5,0(a2)
800003f4:	00250593          	addi	a1,a0,2
800003f8:	00460613          	addi	a2,a2,4
800003fc:	16078263          	beqz	a5,80000560 <vsprintf+0x358>
80000400:	000f8e93          	mv	t4,t6
80000404:	00000a93          	li	s5,0
80000408:	00f7f693          	andi	a3,a5,15
8000040c:	00d286b3          	add	a3,t0,a3
80000410:	0006c683          	lbu	a3,0(a3)
80000414:	0047d793          	srli	a5,a5,0x4
80000418:	000a8a13          	mv	s4,s5
8000041c:	00de8023          	sb	a3,0(t4)
80000420:	001a8a93          	addi	s5,s5,1
80000424:	001e8e93          	addi	t4,t4,1
80000428:	fe0790e3          	bnez	a5,80000408 <vsprintf+0x200>
8000042c:	00b885b3          	add	a1,a7,a1
80000430:	014f87b3          	add	a5,t6,s4
80000434:	00c0006f          	j	80000440 <vsprintf+0x238>
80000438:	fff7c683          	lbu	a3,-1(a5)
8000043c:	000e8793          	mv	a5,t4
80000440:	00d58023          	sb	a3,0(a1)
80000444:	fff78e93          	addi	t4,a5,-1
80000448:	00158593          	addi	a1,a1,1
8000044c:	feff96e3          	bne	t6,a5,80000438 <vsprintf+0x230>
80000450:	00350513          	addi	a0,a0,3
80000454:	01450533          	add	a0,a0,s4
80000458:	00a886b3          	add	a3,a7,a0
8000045c:	e2dff06f          	j	80000288 <vsprintf+0x80>
80000460:	00062783          	lw	a5,0(a2)
80000464:	00150a13          	addi	s4,a0,1
80000468:	00460613          	addi	a2,a2,4
8000046c:	08078463          	beqz	a5,800004f4 <vsprintf+0x2ec>
80000470:	0e07de63          	bgez	a5,8000056c <vsprintf+0x364>
80000474:	01368023          	sb	s3,0(a3)
80000478:	40f007b3          	neg	a5,a5
8000047c:	000f8593          	mv	a1,t6
80000480:	00000e93          	li	t4,0
80000484:	0267e6b3          	rem	a3,a5,t1
80000488:	00158593          	addi	a1,a1,1
8000048c:	000e8513          	mv	a0,t4
80000490:	001e8e93          	addi	t4,t4,1
80000494:	0267c7b3          	div	a5,a5,t1
80000498:	00d286b3          	add	a3,t0,a3
8000049c:	0006c683          	lbu	a3,0(a3)
800004a0:	fed58fa3          	sb	a3,-1(a1)
800004a4:	fe0790e3          	bnez	a5,80000484 <vsprintf+0x27c>
800004a8:	014885b3          	add	a1,a7,s4
800004ac:	00af87b3          	add	a5,t6,a0
800004b0:	00c0006f          	j	800004bc <vsprintf+0x2b4>
800004b4:	fff7c683          	lbu	a3,-1(a5)
800004b8:	000e8793          	mv	a5,t4
800004bc:	00d58023          	sb	a3,0(a1)
800004c0:	fff78e93          	addi	t4,a5,-1
800004c4:	00158593          	addi	a1,a1,1
800004c8:	feff96e3          	bne	t6,a5,800004b4 <vsprintf+0x2ac>
800004cc:	001a0a13          	addi	s4,s4,1
800004d0:	00aa0533          	add	a0,s4,a0
800004d4:	00a886b3          	add	a3,a7,a0
800004d8:	db1ff06f          	j	80000288 <vsprintf+0x80>
800004dc:	00062783          	lw	a5,0(a2)
800004e0:	00150513          	addi	a0,a0,1
800004e4:	00460613          	addi	a2,a2,4
800004e8:	00f68023          	sb	a5,0(a3)
800004ec:	00a886b3          	add	a3,a7,a0
800004f0:	d99ff06f          	j	80000288 <vsprintf+0x80>
800004f4:	00968023          	sb	s1,0(a3)
800004f8:	000a0513          	mv	a0,s4
800004fc:	014886b3          	add	a3,a7,s4
80000500:	d89ff06f          	j	80000288 <vsprintf+0x80>
80000504:	000f8e93          	mv	t4,t6
80000508:	00000a93          	li	s5,0
8000050c:	00f7f593          	andi	a1,a5,15
80000510:	00b285b3          	add	a1,t0,a1
80000514:	0005c583          	lbu	a1,0(a1)
80000518:	0047d793          	srli	a5,a5,0x4
8000051c:	000a8a13          	mv	s4,s5
80000520:	00be8023          	sb	a1,0(t4)
80000524:	001a8a93          	addi	s5,s5,1
80000528:	001e8e93          	addi	t4,t4,1
8000052c:	fe0790e3          	bnez	a5,8000050c <vsprintf+0x304>
80000530:	014f87b3          	add	a5,t6,s4
80000534:	00c0006f          	j	80000540 <vsprintf+0x338>
80000538:	fff7c583          	lbu	a1,-1(a5)
8000053c:	000e8793          	mv	a5,t4
80000540:	00b68023          	sb	a1,0(a3)
80000544:	fff78e93          	addi	t4,a5,-1
80000548:	00168693          	addi	a3,a3,1
8000054c:	feff96e3          	bne	t6,a5,80000538 <vsprintf+0x330>
80000550:	e59ff06f          	j	800003a8 <vsprintf+0x1a0>
80000554:	00000513          	li	a0,0
80000558:	00088023          	sb	zero,0(a7)
8000055c:	00008067          	ret
80000560:	00058513          	mv	a0,a1
80000564:	00b886b3          	add	a3,a7,a1
80000568:	d21ff06f          	j	80000288 <vsprintf+0x80>
8000056c:	00050a13          	mv	s4,a0
80000570:	f0dff06f          	j	8000047c <vsprintf+0x274>

80000574 <printf>:
80000574:	81010113          	addi	sp,sp,-2032
80000578:	7c912223          	sw	s1,1988(sp)
8000057c:	7c112623          	sw	ra,1996(sp)
80000580:	7c812423          	sw	s0,1992(sp)
80000584:	00001eb7          	lui	t4,0x1
80000588:	fa010113          	addi	sp,sp,-96
8000058c:	01010f13          	addi	t5,sp,16
80000590:	824e8e13          	addi	t3,t4,-2012 # 824 <_entry_offset+0x824>
80000594:	01ee0e33          	add	t3,t3,t5
80000598:	00be2023          	sw	a1,0(t3)
8000059c:	828e8593          	addi	a1,t4,-2008
800005a0:	01010f93          	addi	t6,sp,16
800005a4:	01e585b3          	add	a1,a1,t5
800005a8:	82ce8f13          	addi	t5,t4,-2004
800005ac:	00c5a023          	sw	a2,0(a1)
800005b0:	01ff0f33          	add	t5,t5,t6
800005b4:	00df2023          	sw	a3,0(t5)
800005b8:	830e8693          	addi	a3,t4,-2000
800005bc:	01f686b3          	add	a3,a3,t6
800005c0:	00e6a023          	sw	a4,0(a3)
800005c4:	834e8713          	addi	a4,t4,-1996
800005c8:	01f70733          	add	a4,a4,t6
800005cc:	00f72023          	sw	a5,0(a4)
800005d0:	838e8713          	addi	a4,t4,-1992
800005d4:	01f70733          	add	a4,a4,t6
800005d8:	01072023          	sw	a6,0(a4)
800005dc:	fffffe37          	lui	t3,0xfffff
800005e0:	83ce8713          	addi	a4,t4,-1988
800005e4:	810e8793          	addi	a5,t4,-2032
800005e8:	834e8313          	addi	t1,t4,-1996
800005ec:	01f70733          	add	a4,a4,t6
800005f0:	01c787b3          	add	a5,a5,t3
800005f4:	00230333          	add	t1,t1,sp
800005f8:	01172023          	sw	a7,0(a4)
800005fc:	01f787b3          	add	a5,a5,t6
80000600:	00050593          	mv	a1,a0
80000604:	00030613          	mv	a2,t1
80000608:	02010513          	addi	a0,sp,32
8000060c:	7e67ae23          	sw	t1,2044(a5)
80000610:	00f12623          	sw	a5,12(sp)
80000614:	bf5ff0ef          	jal	ra,80000208 <vsprintf>
80000618:	00050493          	mv	s1,a0
8000061c:	02014503          	lbu	a0,32(sp)
80000620:	00050c63          	beqz	a0,80000638 <printf+0xc4>
80000624:	02010413          	addi	s0,sp,32
80000628:	00140413          	addi	s0,s0,1
8000062c:	b85ff0ef          	jal	ra,800001b0 <putch>
80000630:	00044503          	lbu	a0,0(s0)
80000634:	fe051ae3          	bnez	a0,80000628 <printf+0xb4>
80000638:	06010113          	addi	sp,sp,96
8000063c:	7cc12083          	lw	ra,1996(sp)
80000640:	00048513          	mv	a0,s1
80000644:	7c812403          	lw	s0,1992(sp)
80000648:	7c412483          	lw	s1,1988(sp)
8000064c:	7f010113          	addi	sp,sp,2032
80000650:	00008067          	ret
